EXPORTS
    PP_ClearError @1
    PP_Close @2
    PP_GetError @3
    PP_GetMapSize @4
    PP_GetNumSpecialAreas @5
    PP_GetNumUnits @6
    PP_GetResource @7
    PP_GetSpecialAreaPosition @8
    PP_GetStartPosition @9
    PP_GetUnitAt @10
    PP_IsGameOver @11
    PP_Open @12
    PP_SetError @13
    PP_Unit_ActionOnPosition @14
    PP_Unit_ActionOnUnit @15
    PP_Unit_GetCoalition @16
    PP_Unit_GetGroup @17
    PP_Unit_GetHealth @18
    PP_Unit_GetMaxHealth @19
    PP_Unit_GetNumPdgCmds @20
    PP_Unit_GetPendingCommands @21
    PP_Unit_GetPosition @22
    PP_Unit_GetType @23
    PP_Unit_PdgCmd_GetCode @24
    PP_Unit_PdgCmd_GetNumParams @25
    PP_Unit_PdgCmd_GetParam @26
    PP_Unit_SetGroup @27
    PP_Unit_UntargetedAction @28
    _ZGVN5boost12interprocess13mapped_region16page_size_holderILi0EE8PageSizeE @29 DATA
    _ZGVN5boost9date_time10date_facetINS_9gregorian4dateEcSt19ostreambuf_iteratorIcSt11char_traitsIcEEE2idE @30 DATA
    _ZN16ShPendingCommandC1Ev @31
    _ZN5boost10lock_errorC1Ei @32
    _ZN5boost10lock_errorC1Ev @33
    _ZN5boost10lock_errorC2Ei @34
    _ZN5boost10lock_errorC2Ev @35
    _ZN5boost10lock_errorD0Ev @36
    _ZN5boost10lock_errorD1Ev @37
    _ZN5boost10lock_errorD2Ev @38
    _ZN5boost10posix_time13time_durationC1ERKS1_ @39
    _ZN5boost10posix_time13time_durationC1Eiiix @40
    _ZN5boost10posix_time13time_durationC2Eiiix @41
    _ZN5boost10posix_time5ptimeC1ENS_9gregorian4dateENS0_13time_durationE @42
    _ZN5boost10shared_ptrINS_6detail20tss_cleanup_functionEED1Ev @43
    _ZN5boost11this_thread18interruptible_waitEPvNS_6detail7timeoutE @44
    _ZN5boost11this_thread18interruptible_waitEm @45
    _ZN5boost11this_thread18interruption_pointEv @46
    _ZN5boost11this_thread20disable_interruptionC1Ev @47
    _ZN5boost11this_thread20disable_interruptionC2Ev @48
    _ZN5boost11this_thread20disable_interruptionD1Ev @49
    _ZN5boost11this_thread20disable_interruptionD2Ev @50
    _ZN5boost11this_thread20interruption_enabledEv @51
    _ZN5boost11this_thread20restore_interruptionC1ERNS0_20disable_interruptionE @52
    _ZN5boost11this_thread20restore_interruptionC2ERNS0_20disable_interruptionE @53
    _ZN5boost11this_thread20restore_interruptionD1Ev @54
    _ZN5boost11this_thread20restore_interruptionD2Ev @55
    _ZN5boost11this_thread22interruption_requestedEv @56
    _ZN5boost11this_thread5sleepINS_9date_time18subsecond_durationINS_10posix_time13time_durationELx1000EEEEEvRKT_ @57
    _ZN5boost11this_thread5yieldEv @58
    _ZN5boost11this_thread6get_idEv @59
    _ZN5boost12interprocess10error_infoC1ENS0_12error_code_tE @60
    _ZN5boost12interprocess10error_infoC1Ei @61
    _ZN5boost12interprocess10iset_indexINS0_6detail12index_configIcNS0_15rbtree_best_fitINS0_12mutex_familyENS0_10offset_ptrIvEELj0EEEEEE12insert_checkERKNS2_21intrusive_compare_keyIcEERNS_9intrusive6detail15tree_algorithmsINSF_18rbtree_node_traitsIS7_Lb1EEEE18insert_commit_dataE @62
    _ZN5boost12interprocess10iset_indexINS0_6detail12index_configIcNS0_15rbtree_best_fitINS0_12mutex_familyENS0_10offset_ptrIvEELj0EEEEEE4findERKNS2_21intrusive_compare_keyIcEE @63
    _ZN5boost12interprocess10iset_indexINS0_6detail12index_configIcNS0_15rbtree_best_fitINS0_12mutex_familyENS0_10offset_ptrIvEELj0EEEEEEC1EPNS0_20segment_manager_baseIS8_EE @64
    _ZN5boost12interprocess10iset_indexINS0_6detail12index_configIcNS0_15rbtree_best_fitINS0_12mutex_familyENS0_10offset_ptrIvEELj0EEEEEED1Ev @65
    _ZN5boost12interprocess10offset_ptrI6PP_PosE10set_offsetEPKv @66
    _ZN5boost12interprocess10offset_ptrI6PP_PosEaSEPS2_ @67
    _ZN5boost12interprocess10offset_ptrI9ShCommandE10set_offsetEPKv @68
    _ZN5boost12interprocess10offset_ptrI9ShCommandEaSEPS2_ @69
    _ZN5boost12interprocess10offset_ptrIKNS0_15rbtree_best_fitINS0_12mutex_familyENS1_IvEELj0EE10block_ctrlEE10set_offsetEPKv @70
    _ZN5boost12interprocess10offset_ptrIKNS0_15rbtree_best_fitINS0_12mutex_familyENS1_IvEELj0EE10block_ctrlEEC1EPS7_ @71
    _ZN5boost12interprocess10offset_ptrIKNS0_6detail25intrusive_value_type_implINS_9intrusive6detail12generic_hookINS4_17get_set_node_algoINS1_IvEELb1EEENS4_11default_tagELNS4_14link_mode_typeE1ELi3EEEcEEE10set_offsetEPKv @72
    _ZN5boost12interprocess10offset_ptrIKNS0_6detail25intrusive_value_type_implINS_9intrusive6detail12generic_hookINS4_17get_set_node_algoINS1_IvEELb1EEENS4_11default_tagELNS4_14link_mode_typeE1ELi3EEEcEEEC1EPSE_ @73
    _ZN5boost12interprocess10offset_ptrIKNS_22interprocess_container17containers_detail11rbtree_nodeISt4pairIKi16ShPendingCommandENS1_IvEEEEE10set_offsetEPKv @74
    _ZN5boost12interprocess10offset_ptrIKNS_22interprocess_container17containers_detail11rbtree_nodeISt4pairIKi16ShPendingCommandENS1_IvEEEEEC1EPSB_ @75
    _ZN5boost12interprocess10offset_ptrIKNS_22interprocess_container17containers_detail11rbtree_nodeISt4pairIKi6ShUnitENS1_IvEEEEE10set_offsetEPKv @76
    _ZN5boost12interprocess10offset_ptrIKNS_22interprocess_container17containers_detail11rbtree_nodeISt4pairIKi6ShUnitENS1_IvEEEEEC1EPSB_ @77
    _ZN5boost12interprocess10offset_ptrIKNS_9intrusive19compact_rbtree_nodeINS1_IvEEEEE10set_offsetEPKv @78
    _ZN5boost12interprocess10offset_ptrIKNS_9intrusive19compact_rbtree_nodeINS1_IvEEEEEC1EPS6_ @79
    _ZN5boost12interprocess10offset_ptrIKNS_9intrusive19compact_rbtree_nodeINS1_IvEEEEEC1ERKS7_ @80
    _ZN5boost12interprocess10offset_ptrIKNS_9intrusive19compact_rbtree_nodeINS1_IvEEEEEC1IS5_EEPT_ @81
    _ZN5boost12interprocess10offset_ptrIKNS_9intrusive19compact_rbtree_nodeINS1_IvEEEEEC1IS5_EERKNS1_IT_EE @82
    _ZN5boost12interprocess10offset_ptrIKNS_9intrusive19compact_rbtree_nodeINS1_IvEEEEEaSIS5_EERS7_RKNS1_IT_EE @83
    _ZN5boost12interprocess10offset_ptrIKvE10set_offsetEPS2_ @84
    _ZN5boost12interprocess10offset_ptrIKvEC1EPS2_ @85
    _ZN5boost12interprocess10offset_ptrINS0_15rbtree_best_fitINS0_12mutex_familyENS1_IvEELj0EE10block_ctrlEE10set_offsetEPKv @86
    _ZN5boost12interprocess10offset_ptrINS0_15rbtree_best_fitINS0_12mutex_familyENS1_IvEELj0EE10block_ctrlEEC1EPS6_ @87
    _ZN5boost12interprocess10offset_ptrINS0_15segment_managerIcNS0_15rbtree_best_fitINS0_12mutex_familyENS1_IvEELj0EEENS0_10iset_indexEEEE10set_offsetEPKv @88
    _ZN5boost12interprocess10offset_ptrINS0_15segment_managerIcNS0_15rbtree_best_fitINS0_12mutex_familyENS1_IvEELj0EEENS0_10iset_indexEEEEC1EPS8_ @89
    _ZN5boost12interprocess10offset_ptrINS0_6detail25intrusive_value_type_implINS_9intrusive6detail12generic_hookINS4_17get_set_node_algoINS1_IvEELb1EEENS4_11default_tagELNS4_14link_mode_typeE1ELi3EEEcEEE10set_offsetEPKv @90
    _ZN5boost12interprocess10offset_ptrINS0_6detail25intrusive_value_type_implINS_9intrusive6detail12generic_hookINS4_17get_set_node_algoINS1_IvEELb1EEENS4_11default_tagELNS4_14link_mode_typeE1ELi3EEEcEEEC1EPSD_ @91
    _ZN5boost12interprocess10offset_ptrINS0_6detail25intrusive_value_type_implINS_9intrusive6detail12generic_hookINS4_17get_set_node_algoINS1_IvEELb1EEENS4_11default_tagELNS4_14link_mode_typeE1ELi3EEEcEEEC1ERKSE_ @92
    _ZN5boost12interprocess10offset_ptrINS_22interprocess_container17containers_detail11rbtree_nodeISt4pairIKi16ShPendingCommandENS1_IvEEEEE10set_offsetEPKv @93
    _ZN5boost12interprocess10offset_ptrINS_22interprocess_container17containers_detail11rbtree_nodeISt4pairIKi16ShPendingCommandENS1_IvEEEEEC1EPSA_ @94
    _ZN5boost12interprocess10offset_ptrINS_22interprocess_container17containers_detail11rbtree_nodeISt4pairIKi16ShPendingCommandENS1_IvEEEEEC1ERKSB_ @95
    _ZN5boost12interprocess10offset_ptrINS_22interprocess_container17containers_detail11rbtree_nodeISt4pairIKi16ShPendingCommandENS1_IvEEEEEaSEPSA_ @96
    _ZN5boost12interprocess10offset_ptrINS_22interprocess_container17containers_detail11rbtree_nodeISt4pairIKi6ShUnitENS1_IvEEEEE10set_offsetEPKv @97
    _ZN5boost12interprocess10offset_ptrINS_22interprocess_container17containers_detail11rbtree_nodeISt4pairIKi6ShUnitENS1_IvEEEEEC1EPSA_ @98
    _ZN5boost12interprocess10offset_ptrINS_9intrusive19compact_rbtree_nodeINS1_IvEEEEE10set_offsetEPKv @99
    _ZN5boost12interprocess10offset_ptrINS_9intrusive19compact_rbtree_nodeINS1_IvEEEEEC1EPS5_ @100
    _ZN5boost12interprocess10offset_ptrINS_9intrusive19compact_rbtree_nodeINS1_IvEEEEEC1ERKS6_ @101
    _ZN5boost12interprocess10offset_ptrINS_9intrusive19compact_rbtree_nodeINS1_IvEEEEEC1INS2_6detail11node_holderIS5_NS2_11default_tagELNS2_14link_mode_typeE0ELi3EEEEEPT_ @102
    _ZN5boost12interprocess10offset_ptrINS_9intrusive19compact_rbtree_nodeINS1_IvEEEEEC1INS2_6detail11node_holderIS5_NS2_11default_tagELNS2_14link_mode_typeE1ELi3EEEEEPT_ @103
    _ZN5boost12interprocess10offset_ptrINS_9intrusive19compact_rbtree_nodeINS1_IvEEEEEaSEPS5_ @104
    _ZN5boost12interprocess10offset_ptrINS_9intrusive19compact_rbtree_nodeINS1_IvEEEEEaSERKS6_ @105
    _ZN5boost12interprocess10offset_ptrISt4pairIKi6ShUnitEE10set_offsetEPKv @106
    _ZN5boost12interprocess10offset_ptrISt4pairIKi6ShUnitEEC1EPS5_ @107
    _ZN5boost12interprocess10offset_ptrIfE10set_offsetEPKv @108
    _ZN5boost12interprocess10offset_ptrIfEC1EPf @109
    _ZN5boost12interprocess10offset_ptrIfEC1ERKS2_ @110
    _ZN5boost12interprocess10offset_ptrIfEaSEPf @111
    _ZN5boost12interprocess10offset_ptrIfEaSERKS2_ @112
    _ZN5boost12interprocess10offset_ptrIiE10set_offsetEPKv @113
    _ZN5boost12interprocess10offset_ptrIiEaSEPi @114
    _ZN5boost12interprocess10offset_ptrIvE10set_offsetEPKv @115
    _ZN5boost12interprocess10offset_ptrIvEC1EPv @116
    _ZN5boost12interprocess10offset_ptrIvEC1ERKS2_ @117
    _ZN5boost12interprocess10offset_ptrIvEC1INS_22interprocess_container17containers_detail11rbtree_nodeISt4pairIKi16ShPendingCommandES2_EEEERKNS1_IT_EE @118
    _ZN5boost12interprocess10offset_ptrIvEC1INS_22interprocess_container17containers_detail11rbtree_nodeISt4pairIKi6ShUnitES2_EEEERKNS1_IT_EE @119
    _ZN5boost12interprocess10offset_ptrIvEaSERKS2_ @120
    _ZN5boost12interprocess11scoped_lockINS0_18interprocess_mutexEEC1ERS2_ @121
    _ZN5boost12interprocess11scoped_lockINS0_18interprocess_mutexEED1Ev @122
    _ZN5boost12interprocess11scoped_lockINS0_28interprocess_recursive_mutexEE4lockEv @123
    _ZN5boost12interprocess11scoped_lockINS0_28interprocess_recursive_mutexEE7releaseEv @124
    _ZN5boost12interprocess11scoped_lockINS0_28interprocess_recursive_mutexEEC1ERNS0_2rvIS3_EE @125
    _ZN5boost12interprocess11scoped_lockINS0_28interprocess_recursive_mutexEEC1ERS2_ @126
    _ZN5boost12interprocess11scoped_lockINS0_28interprocess_recursive_mutexEEC1ERS2_NS0_15defer_lock_typeE @127
    _ZN5boost12interprocess11scoped_lockINS0_28interprocess_recursive_mutexEED1Ev @128
    _ZN5boost12interprocess11scoped_lockINS0_28interprocess_recursive_mutexEEcvRNS0_2rvIS3_EEEv @129
    _ZN5boost12interprocess12value_eraserINS0_10iset_indexINS0_6detail12index_configIcNS0_15rbtree_best_fitINS0_12mutex_familyENS0_10offset_ptrIvEELj0EEEEEEEE7releaseEv @130
    _ZN5boost12interprocess12value_eraserINS0_10iset_indexINS0_6detail12index_configIcNS0_15rbtree_best_fitINS0_12mutex_familyENS0_10offset_ptrIvEELj0EEEEEEEEC1ERSB_NS_9intrusive13tree_iteratorINSE_11rbtree_implINSE_6setoptINSE_6detail16base_hook_traitsINS3_25intrusive_value_type_implINSI_12generic_hookINSE_17get_set_node_algoIS8_Lb1EEENSE_11default_tagELNSE_14link_mode_typeE1ELi3EEEcEENSE_18rbtree_node_traitsIS8_Lb1EEELSP_1ESO_Li3EEESt4lessISR_EjLb1EEEEELb0EEE @131
    _ZN5boost12interprocess12value_eraserINS0_10iset_indexINS0_6detail12index_configIcNS0_15rbtree_best_fitINS0_12mutex_familyENS0_10offset_ptrIvEELj0EEEEEEEED1Ev @132
    _ZN5boost12interprocess13mapped_region10priv_closeEv @133
    _ZN5boost12interprocess13mapped_region16page_size_holderILi0EE13get_page_sizeEv @134
    _ZN5boost12interprocess13mapped_region16page_size_holderILi0EE8PageSizeE @135 DATA
    _ZN5boost12interprocess13mapped_region4swapERS1_ @136
    _ZN5boost12interprocess13mapped_regionC1Ev @137
    _ZN5boost12interprocess13mapped_regionC1INS0_20shared_memory_objectEEERKT_NS0_6mode_tExjPKv @138
    _ZN5boost12interprocess13mapped_regionD1Ev @139
    _ZN5boost12interprocess14lock_exceptionC1Ev @140
    _ZN5boost12interprocess14lock_exceptionD0Ev @141
    _ZN5boost12interprocess14lock_exceptionD1Ev @142
    _ZN5boost12interprocess15rbtree_best_fitINS0_12mutex_familyENS0_10offset_ptrIvEELj0EE10SizeHolderC2Ev @143
    _ZN5boost12interprocess15rbtree_best_fitINS0_12mutex_familyENS0_10offset_ptrIvEELj0EE10block_ctrlC1Ev @144
    _ZN5boost12interprocess15rbtree_best_fitINS0_12mutex_familyENS0_10offset_ptrIvEELj0EE10deallocateEPv @145
    _ZN5boost12interprocess15rbtree_best_fitINS0_12mutex_familyENS0_10offset_ptrIvEELj0EE11priv_expandEPvjjRj @146
    _ZN5boost12interprocess15rbtree_best_fitINS0_12mutex_familyENS0_10offset_ptrIvEELj0EE12get_min_sizeEj @147
    _ZN5boost12interprocess15rbtree_best_fitINS0_12mutex_familyENS0_10offset_ptrIvEELj0EE13priv_allocateEijjRjPvj @148
    _ZN5boost12interprocess15rbtree_best_fitINS0_12mutex_familyENS0_10offset_ptrIvEELj0EE14priv_end_blockEPNS5_10block_ctrlE @149
    _ZN5boost12interprocess15rbtree_best_fitINS0_12mutex_familyENS0_10offset_ptrIvEELj0EE14priv_get_blockEPKv @150
    _ZN5boost12interprocess15rbtree_best_fitINS0_12mutex_familyENS0_10offset_ptrIvEELj0EE15deallocate_manyENS0_6detail42basic_multiallocation_cached_counted_slistINS6_34basic_multiallocation_cached_slistIS4_EEEE @151
    _ZN5boost12interprocess15rbtree_best_fitINS0_12mutex_familyENS0_10offset_ptrIvEELj0EE15priv_deallocateEPv @152
    _ZN5boost12interprocess15rbtree_best_fitINS0_12mutex_familyENS0_10offset_ptrIvEELj0EE15priv_next_blockEPNS5_10block_ctrlE @153
    _ZN5boost12interprocess15rbtree_best_fitINS0_12mutex_familyENS0_10offset_ptrIvEELj0EE15priv_prev_blockEPNS5_10block_ctrlE @154
    _ZN5boost12interprocess15rbtree_best_fitINS0_12mutex_familyENS0_10offset_ptrIvEELj0EE16priv_add_segmentEPvj @155
    _ZN5boost12interprocess15rbtree_best_fitINS0_12mutex_familyENS0_10offset_ptrIvEELj0EE18allocation_commandIfEESt4pairIPT_bEijjRjS9_ @156
    _ZN5boost12interprocess15rbtree_best_fitINS0_12mutex_familyENS0_10offset_ptrIvEELj0EE20priv_get_total_unitsEj @157
    _ZN5boost12interprocess15rbtree_best_fitINS0_12mutex_familyENS0_10offset_ptrIvEELj0EE20priv_get_user_bufferEPKNS5_10block_ctrlE @158
    _ZN5boost12interprocess15rbtree_best_fitINS0_12mutex_familyENS0_10offset_ptrIvEELj0EE22priv_expand_both_sidesEijjRjPvbj @159
    _ZN5boost12interprocess15rbtree_best_fitINS0_12mutex_familyENS0_10offset_ptrIvEELj0EE22priv_is_prev_allocatedEPNS5_10block_ctrlE @160
    _ZN5boost12interprocess15rbtree_best_fitINS0_12mutex_familyENS0_10offset_ptrIvEELj0EE23priv_allocation_commandEijjRjPvj @161
    _ZN5boost12interprocess15rbtree_best_fitINS0_12mutex_familyENS0_10offset_ptrIvEELj0EE23priv_check_and_allocateEjPNS5_10block_ctrlERj @162
    _ZN5boost12interprocess15rbtree_best_fitINS0_12mutex_familyENS0_10offset_ptrIvEELj0EE23priv_first_block_offsetEPKvj @163
    _ZN5boost12interprocess15rbtree_best_fitINS0_12mutex_familyENS0_10offset_ptrIvEELj0EE23priv_is_allocated_blockEPNS5_10block_ctrlE @164
    _ZN5boost12interprocess15rbtree_best_fitINS0_12mutex_familyENS0_10offset_ptrIvEELj0EE23priv_mark_as_free_blockEPNS5_10block_ctrlE @165
    _ZN5boost12interprocess15rbtree_best_fitINS0_12mutex_familyENS0_10offset_ptrIvEELj0EE28priv_mark_as_allocated_blockEPNS5_10block_ctrlE @166
    _ZN5boost12interprocess15rbtree_best_fitINS0_12mutex_familyENS0_10offset_ptrIvEELj0EE29priv_mark_new_allocated_blockEPNS5_10block_ctrlE @167
    _ZN5boost12interprocess15rbtree_best_fitINS0_12mutex_familyENS0_10offset_ptrIvEELj0EE8allocateEj @168
    _ZN5boost12interprocess15rbtree_best_fitINS0_12mutex_familyENS0_10offset_ptrIvEELj0EE8header_tC1Ev @169
    _ZN5boost12interprocess15rbtree_best_fitINS0_12mutex_familyENS0_10offset_ptrIvEELj0EE8header_tD1Ev @170
    _ZN5boost12interprocess15rbtree_best_fitINS0_12mutex_familyENS0_10offset_ptrIvEELj0EEC2Ejj @171
    _ZN5boost12interprocess15rbtree_best_fitINS0_12mutex_familyENS0_10offset_ptrIvEELj0EED2Ev @172
    _ZN5boost12interprocess15segment_managerIcNS0_15rbtree_best_fitINS0_12mutex_familyENS0_10offset_ptrIvEELj0EEENS0_10iset_indexEE11destroy_ptrINS_22interprocess_container6vectorIfNS0_9allocatorIfS8_EEEEEEvPKT_ @173
    _ZN5boost12interprocess15segment_managerIcNS0_15rbtree_best_fitINS0_12mutex_familyENS0_10offset_ptrIvEELj0EEENS0_10iset_indexEE12find_no_lockI6PP_PosEESt4pairIPT_jEPKc @174
    _ZN5boost12interprocess15segment_managerIcNS0_15rbtree_best_fitINS0_12mutex_familyENS0_10offset_ptrIvEELj0EEENS0_10iset_indexEE12find_no_lockINS0_18interprocess_mutexEEESt4pairIPT_jEPKc @175
    _ZN5boost12interprocess15segment_managerIcNS0_15rbtree_best_fitINS0_12mutex_familyENS0_10offset_ptrIvEELj0EEENS0_10iset_indexEE12find_no_lockINS_22interprocess_container3mapIi16ShPendingCommandSt4lessIiENS0_9allocatorISt4pairIKiSC_ES8_EEEEEESG_IPT_jEPKc @176
    _ZN5boost12interprocess15segment_managerIcNS0_15rbtree_best_fitINS0_12mutex_familyENS0_10offset_ptrIvEELj0EEENS0_10iset_indexEE12find_no_lockINS_22interprocess_container3mapIi6ShUnitSt4lessIiENS0_9allocatorISt4pairIKiSC_ES8_EEEEEESG_IPT_jEPKc @177
    _ZN5boost12interprocess15segment_managerIcNS0_15rbtree_best_fitINS0_12mutex_familyENS0_10offset_ptrIvEELj0EEENS0_10iset_indexEE12find_no_lockINS_22interprocess_container6vectorI6PP_PosNS0_9allocatorISC_S8_EEEEEESt4pairIPT_jEPKc @178
    _ZN5boost12interprocess15segment_managerIcNS0_15rbtree_best_fitINS0_12mutex_familyENS0_10offset_ptrIvEELj0EEENS0_10iset_indexEE12find_no_lockINS_22interprocess_container6vectorI9ShCommandNS0_9allocatorISC_S8_EEEEEESt4pairIPT_jEPKc @179
    _ZN5boost12interprocess15segment_managerIcNS0_15rbtree_best_fitINS0_12mutex_familyENS0_10offset_ptrIvEELj0EEENS0_10iset_indexEE12find_no_lockINS_22interprocess_container6vectorIfNS0_9allocatorIfS8_EEEEEESt4pairIPT_jEPKc @180
    _ZN5boost12interprocess15segment_managerIcNS0_15rbtree_best_fitINS0_12mutex_familyENS0_10offset_ptrIvEELj0EEENS0_10iset_indexEE12find_no_lockINS_22interprocess_container6vectorIiNS0_9allocatorIiS8_EEEEEESt4pairIPT_jEPKc @181
    _ZN5boost12interprocess15segment_managerIcNS0_15rbtree_best_fitINS0_12mutex_familyENS0_10offset_ptrIvEELj0EEENS0_10iset_indexEE12find_no_lockIbEESt4pairIPT_jEPKc @182
    _ZN5boost12interprocess15segment_managerIcNS0_15rbtree_best_fitINS0_12mutex_familyENS0_10offset_ptrIvEELj0EEENS0_10iset_indexEE12get_min_sizeEv @183
    _ZN5boost12interprocess15segment_managerIcNS0_15rbtree_best_fitINS0_12mutex_familyENS0_10offset_ptrIvEELj0EEENS0_10iset_indexEE13priv_get_lockEb @184
    _ZN5boost12interprocess15segment_managerIcNS0_15rbtree_best_fitINS0_12mutex_familyENS0_10offset_ptrIvEELj0EEENS0_10iset_indexEE14priv_find_implI6PP_PosEESt4pairIPT_jEPKcb @185
    _ZN5boost12interprocess15segment_managerIcNS0_15rbtree_best_fitINS0_12mutex_familyENS0_10offset_ptrIvEELj0EEENS0_10iset_indexEE14priv_find_implINS0_18interprocess_mutexEEESt4pairIPT_jEPKcb @186
    _ZN5boost12interprocess15segment_managerIcNS0_15rbtree_best_fitINS0_12mutex_familyENS0_10offset_ptrIvEELj0EEENS0_10iset_indexEE14priv_find_implINS_22interprocess_container3mapIi16ShPendingCommandSt4lessIiENS0_9allocatorISt4pairIKiSC_ES8_EEEEEESG_IPT_jEPKcb @187
    _ZN5boost12interprocess15segment_managerIcNS0_15rbtree_best_fitINS0_12mutex_familyENS0_10offset_ptrIvEELj0EEENS0_10iset_indexEE14priv_find_implINS_22interprocess_container3mapIi6ShUnitSt4lessIiENS0_9allocatorISt4pairIKiSC_ES8_EEEEEESG_IPT_jEPKcb @188
    _ZN5boost12interprocess15segment_managerIcNS0_15rbtree_best_fitINS0_12mutex_familyENS0_10offset_ptrIvEELj0EEENS0_10iset_indexEE14priv_find_implINS_22interprocess_container6vectorI6PP_PosNS0_9allocatorISC_S8_EEEEEESt4pairIPT_jEPKcb @189
    _ZN5boost12interprocess15segment_managerIcNS0_15rbtree_best_fitINS0_12mutex_familyENS0_10offset_ptrIvEELj0EEENS0_10iset_indexEE14priv_find_implINS_22interprocess_container6vectorI9ShCommandNS0_9allocatorISC_S8_EEEEEESt4pairIPT_jEPKcb @190
    _ZN5boost12interprocess15segment_managerIcNS0_15rbtree_best_fitINS0_12mutex_familyENS0_10offset_ptrIvEELj0EEENS0_10iset_indexEE14priv_find_implINS_22interprocess_container6vectorIfNS0_9allocatorIfS8_EEEEEESt4pairIPT_jEPKcb @191
    _ZN5boost12interprocess15segment_managerIcNS0_15rbtree_best_fitINS0_12mutex_familyENS0_10offset_ptrIvEELj0EEENS0_10iset_indexEE14priv_find_implINS_22interprocess_container6vectorIiNS0_9allocatorIiS8_EEEEEESt4pairIPT_jEPKcb @192
    _ZN5boost12interprocess15segment_managerIcNS0_15rbtree_best_fitINS0_12mutex_familyENS0_10offset_ptrIvEELj0EEENS0_10iset_indexEE14priv_find_implIbEESt4pairIPT_jEPKcb @193
    _ZN5boost12interprocess15segment_managerIcNS0_15rbtree_best_fitINS0_12mutex_familyENS0_10offset_ptrIvEELj0EEENS0_10iset_indexEE16get_this_pointerEv @194
    _ZN5boost12interprocess15segment_managerIcNS0_15rbtree_best_fitINS0_12mutex_familyENS0_10offset_ptrIvEELj0EEENS0_10iset_indexEE16priv_destroy_ptrEPKvRNS0_6detail18in_place_interfaceE @195
    _ZN5boost12interprocess15segment_managerIcNS0_15rbtree_best_fitINS0_12mutex_familyENS0_10offset_ptrIvEELj0EEENS0_10iset_indexEE17generic_constructINS_22interprocess_container6vectorIfNS0_9allocatorIfS8_EEEEEEPT_PKcjbbRNS0_6detail18in_place_interfaceE @196
    _ZN5boost12interprocess15segment_managerIcNS0_15rbtree_best_fitINS0_12mutex_familyENS0_10offset_ptrIvEELj0EEENS0_10iset_indexEE17priv_generic_findIcEEPvPKT_RNS7_INS0_6detail12index_configISB_S6_EEEERNSE_18in_place_interfaceERjNSE_5bool_ILb1EEEb @197
    _ZN5boost12interprocess15segment_managerIcNS0_15rbtree_best_fitINS0_12mutex_familyENS0_10offset_ptrIvEELj0EEENS0_10iset_indexEE22priv_generic_constructEPKcjbbRNS0_6detail18in_place_interfaceE @198
    _ZN5boost12interprocess15segment_managerIcNS0_15rbtree_best_fitINS0_12mutex_familyENS0_10offset_ptrIvEELj0EEENS0_10iset_indexEE23priv_get_reserved_bytesEv @199
    _ZN5boost12interprocess15segment_managerIcNS0_15rbtree_best_fitINS0_12mutex_familyENS0_10offset_ptrIvEELj0EEENS0_10iset_indexEE26priv_generic_named_destroyIcEEbPKT_RNS7_INS0_6detail12index_configISA_S6_EEEERNSD_18in_place_interfaceENSD_5bool_ILb1EEE @200
    _ZN5boost12interprocess15segment_managerIcNS0_15rbtree_best_fitINS0_12mutex_familyENS0_10offset_ptrIvEELj0EEENS0_10iset_indexEE26priv_generic_named_destroyIcEEbPNS0_6detail12block_headerERNS7_INSA_12index_configIT_S6_EEEERNSA_18in_place_interfaceENSA_5bool_ILb0EEE @201
    _ZN5boost12interprocess15segment_managerIcNS0_15rbtree_best_fitINS0_12mutex_familyENS0_10offset_ptrIvEELj0EEENS0_10iset_indexEE28priv_generic_named_constructIcEEPvjPKT_jbbRNS0_6detail18in_place_interfaceERNS7_INSE_12index_configISB_S6_EEEENSE_5bool_ILb1EEE @202
    _ZN5boost12interprocess15segment_managerIcNS0_15rbtree_best_fitINS0_12mutex_familyENS0_10offset_ptrIvEELj0EEENS0_10iset_indexEE4findI6PP_PosEESt4pairIPT_jEPKc @203
    _ZN5boost12interprocess15segment_managerIcNS0_15rbtree_best_fitINS0_12mutex_familyENS0_10offset_ptrIvEELj0EEENS0_10iset_indexEE4findINS0_18interprocess_mutexEEESt4pairIPT_jEPKc @204
    _ZN5boost12interprocess15segment_managerIcNS0_15rbtree_best_fitINS0_12mutex_familyENS0_10offset_ptrIvEELj0EEENS0_10iset_indexEE4findINS_22interprocess_container3mapIi16ShPendingCommandSt4lessIiENS0_9allocatorISt4pairIKiSC_ES8_EEEEEESG_IPT_jEPKc @205
    _ZN5boost12interprocess15segment_managerIcNS0_15rbtree_best_fitINS0_12mutex_familyENS0_10offset_ptrIvEELj0EEENS0_10iset_indexEE4findINS_22interprocess_container3mapIi6ShUnitSt4lessIiENS0_9allocatorISt4pairIKiSC_ES8_EEEEEESG_IPT_jEPKc @206
    _ZN5boost12interprocess15segment_managerIcNS0_15rbtree_best_fitINS0_12mutex_familyENS0_10offset_ptrIvEELj0EEENS0_10iset_indexEE4findINS_22interprocess_container6vectorI6PP_PosNS0_9allocatorISC_S8_EEEEEESt4pairIPT_jEPKc @207
    _ZN5boost12interprocess15segment_managerIcNS0_15rbtree_best_fitINS0_12mutex_familyENS0_10offset_ptrIvEELj0EEENS0_10iset_indexEE4findINS_22interprocess_container6vectorI9ShCommandNS0_9allocatorISC_S8_EEEEEESt4pairIPT_jEPKc @208
    _ZN5boost12interprocess15segment_managerIcNS0_15rbtree_best_fitINS0_12mutex_familyENS0_10offset_ptrIvEELj0EEENS0_10iset_indexEE4findINS_22interprocess_container6vectorIfNS0_9allocatorIfS8_EEEEEESt4pairIPT_jEPKc @209
    _ZN5boost12interprocess15segment_managerIcNS0_15rbtree_best_fitINS0_12mutex_familyENS0_10offset_ptrIvEELj0EEENS0_10iset_indexEE4findINS_22interprocess_container6vectorIiNS0_9allocatorIiS8_EEEEEESt4pairIPT_jEPKc @210
    _ZN5boost12interprocess15segment_managerIcNS0_15rbtree_best_fitINS0_12mutex_familyENS0_10offset_ptrIvEELj0EEENS0_10iset_indexEE4findIbEESt4pairIPT_jEPKc @211
    _ZN5boost12interprocess15segment_managerIcNS0_15rbtree_best_fitINS0_12mutex_familyENS0_10offset_ptrIvEELj0EEENS0_10iset_indexEE8header_tC1EPNS0_20segment_manager_baseIS6_EE @212
    _ZN5boost12interprocess15segment_managerIcNS0_15rbtree_best_fitINS0_12mutex_familyENS0_10offset_ptrIvEELj0EEENS0_10iset_indexEE9constructINS_22interprocess_container6vectorIfNS0_9allocatorIfS8_EEEEEENS8_15construct_proxyIT_E4typeENS0_6detail15char_ptr_holderIcEE @213
    _ZN5boost12interprocess15segment_managerIcNS0_15rbtree_best_fitINS0_12mutex_familyENS0_10offset_ptrIvEELj0EEENS0_10iset_indexEEC1Ej @214
    _ZN5boost12interprocess18interprocess_mutex4lockEv @215
    _ZN5boost12interprocess18interprocess_mutex6unlockEv @216
    _ZN5boost12interprocess18interprocess_mutexC1Ev @217
    _ZN5boost12interprocess18interprocess_mutexC2Ev @218
    _ZN5boost12interprocess18interprocess_mutexD1Ev @219
    _ZN5boost12interprocess18interprocess_mutexD2Ev @220
    _ZN5boost12interprocess19fill_system_messageEiRSs @221
    _ZN5boost12interprocess20segment_manager_baseINS0_15rbtree_best_fitINS0_12mutex_familyENS0_10offset_ptrIvEELj0EEEE10deallocateEPv @222
    _ZN5boost12interprocess20segment_manager_baseINS0_15rbtree_best_fitINS0_12mutex_familyENS0_10offset_ptrIvEELj0EEEE12get_min_sizeEj @223
    _ZN5boost12interprocess20segment_manager_baseINS0_15rbtree_best_fitINS0_12mutex_familyENS0_10offset_ptrIvEELj0EEEE15deallocate_manyENS0_6detail42basic_multiallocation_cached_counted_slistINS8_34basic_multiallocation_cached_slistIS5_EEEE @224
    _ZN5boost12interprocess20segment_manager_baseINS0_15rbtree_best_fitINS0_12mutex_familyENS0_10offset_ptrIvEELj0EEEE18allocation_commandIfEESt4pairIPT_bEijjRjSB_ @225
    _ZN5boost12interprocess20segment_manager_baseINS0_15rbtree_best_fitINS0_12mutex_familyENS0_10offset_ptrIvEELj0EEEE22prot_anonymous_destroyEPKvRNS0_6detail18in_place_interfaceE @226
    _ZN5boost12interprocess20segment_manager_baseINS0_15rbtree_best_fitINS0_12mutex_familyENS0_10offset_ptrIvEELj0EEEE24prot_anonymous_constructEjbRNS0_6detail18in_place_interfaceE @227
    _ZN5boost12interprocess20segment_manager_baseINS0_15rbtree_best_fitINS0_12mutex_familyENS0_10offset_ptrIvEELj0EEEE8allocateEj @228
    _ZN5boost12interprocess20segment_manager_baseINS0_15rbtree_best_fitINS0_12mutex_familyENS0_10offset_ptrIvEELj0EEEE8allocateEjSt9nothrow_t @229
    _ZN5boost12interprocess20segment_manager_baseINS0_15rbtree_best_fitINS0_12mutex_familyENS0_10offset_ptrIvEELj0EEEEC2Ejj @230
    _ZN5boost12interprocess20segment_manager_baseINS0_15rbtree_best_fitINS0_12mutex_familyENS0_10offset_ptrIvEELj0EEEED2Ev @231
    _ZN5boost12interprocess20shared_memory_object10priv_closeEv @232
    _ZN5boost12interprocess20shared_memory_object19priv_open_or_createENS0_6detail13create_enum_tEPKcNS0_6mode_tE @233
    _ZN5boost12interprocess20shared_memory_object4swapERS1_ @234
    _ZN5boost12interprocess20shared_memory_object8truncateEx @235
    _ZN5boost12interprocess20shared_memory_objectC1ENS0_11open_only_tEPKcNS0_6mode_tE @236
    _ZN5boost12interprocess20shared_memory_objectC1ENS0_13create_only_tEPKcNS0_6mode_tE @237
    _ZN5boost12interprocess20shared_memory_objectC1Ev @238
    _ZN5boost12interprocess20shared_memory_objectD1Ev @239
    _ZN5boost12interprocess22interprocess_exceptionC1ENS0_12error_code_tE @240
    _ZN5boost12interprocess22interprocess_exceptionC1ERKNS0_10error_infoE @241
    _ZN5boost12interprocess22interprocess_exceptionC2ENS0_12error_code_tE @242
    _ZN5boost12interprocess22interprocess_exceptionD0Ev @243
    _ZN5boost12interprocess22interprocess_exceptionD1Ev @244
    _ZN5boost12interprocess22interprocess_exceptionD2Ev @245
    _ZN5boost12interprocess26uninitialized_copy_or_moveIN9__gnu_cxx17__normal_iteratorIPKfSt6vectorIfSaIfEEEEPfEET0_T_SC_SB_PNS_10disable_ifINS0_11move_detail16is_move_iteratorISC_EEvE4typeE @246
    _ZN5boost12interprocess27basic_managed_shared_memoryIcNS0_15rbtree_best_fitINS0_12mutex_familyENS0_10offset_ptrIvEELj0EEENS0_10iset_indexEE16get_this_pointerEv @247
    _ZN5boost12interprocess27basic_managed_shared_memoryIcNS0_15rbtree_best_fitINS0_12mutex_familyENS0_10offset_ptrIvEELj0EEENS0_10iset_indexEE4findI6PP_PosEESt4pairIPT_jENS0_6detail15char_ptr_holderIcEE @248
    _ZN5boost12interprocess27basic_managed_shared_memoryIcNS0_15rbtree_best_fitINS0_12mutex_familyENS0_10offset_ptrIvEELj0EEENS0_10iset_indexEE4findINS0_18interprocess_mutexEEESt4pairIPT_jENS0_6detail15char_ptr_holderIcEE @249
    _ZN5boost12interprocess27basic_managed_shared_memoryIcNS0_15rbtree_best_fitINS0_12mutex_familyENS0_10offset_ptrIvEELj0EEENS0_10iset_indexEE4findINS_22interprocess_container3mapIi16ShPendingCommandSt4lessIiENS0_9allocatorISt4pairIKiSC_ENS0_15segment_managerIcS6_S7_EEEEEEEESG_IPT_jENS0_6detail15char_ptr_holderIcEE @250
    _ZN5boost12interprocess27basic_managed_shared_memoryIcNS0_15rbtree_best_fitINS0_12mutex_familyENS0_10offset_ptrIvEELj0EEENS0_10iset_indexEE4findINS_22interprocess_container3mapIi6ShUnitSt4lessIiENS0_9allocatorISt4pairIKiSC_ENS0_15segment_managerIcS6_S7_EEEEEEEESG_IPT_jENS0_6detail15char_ptr_holderIcEE @251
    _ZN5boost12interprocess27basic_managed_shared_memoryIcNS0_15rbtree_best_fitINS0_12mutex_familyENS0_10offset_ptrIvEELj0EEENS0_10iset_indexEE4findINS_22interprocess_container6vectorI6PP_PosNS0_9allocatorISC_NS0_15segment_managerIcS6_S7_EEEEEEEESt4pairIPT_jENS0_6detail15char_ptr_holderIcEE @252
    _ZN5boost12interprocess27basic_managed_shared_memoryIcNS0_15rbtree_best_fitINS0_12mutex_familyENS0_10offset_ptrIvEELj0EEENS0_10iset_indexEE4findINS_22interprocess_container6vectorI9ShCommandNS0_9allocatorISC_NS0_15segment_managerIcS6_S7_EEEEEEEESt4pairIPT_jENS0_6detail15char_ptr_holderIcEE @253
    _ZN5boost12interprocess27basic_managed_shared_memoryIcNS0_15rbtree_best_fitINS0_12mutex_familyENS0_10offset_ptrIvEELj0EEENS0_10iset_indexEE4findINS_22interprocess_container6vectorIfNS0_9allocatorIfNS0_15segment_managerIcS6_S7_EEEEEEEESt4pairIPT_jENS0_6detail15char_ptr_holderIcEE @254
    _ZN5boost12interprocess27basic_managed_shared_memoryIcNS0_15rbtree_best_fitINS0_12mutex_familyENS0_10offset_ptrIvEELj0EEENS0_10iset_indexEE4findINS_22interprocess_container6vectorIiNS0_9allocatorIiNS0_15segment_managerIcS6_S7_EEEEEEEESt4pairIPT_jENS0_6detail15char_ptr_holderIcEE @255
    _ZN5boost12interprocess27basic_managed_shared_memoryIcNS0_15rbtree_best_fitINS0_12mutex_familyENS0_10offset_ptrIvEELj0EEENS0_10iset_indexEE4findIbEESt4pairIPT_jENS0_6detail15char_ptr_holderIcEE @256
    _ZN5boost12interprocess27basic_managed_shared_memoryIcNS0_15rbtree_best_fitINS0_12mutex_familyENS0_10offset_ptrIvEELj0EEENS0_10iset_indexEEC1ENS0_11open_only_tEPKcPKv @257
    _ZN5boost12interprocess27basic_managed_shared_memoryIcNS0_15rbtree_best_fitINS0_12mutex_familyENS0_10offset_ptrIvEELj0EEENS0_10iset_indexEED1Ev @258
    _ZN5boost12interprocess28interprocess_recursive_mutex4lockEv @259
    _ZN5boost12interprocess28interprocess_recursive_mutex6unlockEv @260
    _ZN5boost12interprocess28interprocess_recursive_mutexC2Ev @261
    _ZN5boost12interprocess28interprocess_recursive_mutexD2Ev @262
    _ZN5boost12interprocess4moveI16ShPendingCommandEENS_10disable_ifINS0_10is_movableIT_EERS5_E4typeES7_ @263
    _ZN5boost12interprocess4moveINS0_11scoped_lockINS0_28interprocess_recursive_mutexEEEEENS_9enable_ifINS0_10is_movableIT_EERNS0_2rvIS7_EEE4typeERS7_ @264
    _ZN5boost12interprocess4moveINS0_6detail31transform_multiallocation_chainINS2_42basic_multiallocation_cached_counted_slistINS2_34basic_multiallocation_cached_slistINS0_10offset_ptrIvEEEEEENS_22interprocess_container17containers_detail11rbtree_nodeISt4pairIKi16ShPendingCommandES7_EEEEEENS_9enable_ifINS0_10is_movableIT_EERNS0_2rvISL_EEE4typeERSL_ @265
    _ZN5boost12interprocess4moveINS0_6detail31transform_multiallocation_chainINS2_42basic_multiallocation_cached_counted_slistINS2_34basic_multiallocation_cached_slistINS0_10offset_ptrIvEEEEEENS_22interprocess_container17containers_detail11rbtree_nodeISt4pairIKi6ShUnitES7_EEEEEENS_9enable_ifINS0_10is_movableIT_EERNS0_2rvISL_EEE4typeERSL_ @266
    _ZN5boost12interprocess4moveINS0_6detail42basic_multiallocation_cached_counted_slistINS2_34basic_multiallocation_cached_slistINS0_10offset_ptrIvEEEEEEEENS_9enable_ifINS0_10is_movableIT_EERNS0_2rvISB_EEE4typeERSB_ @267
    _ZN5boost12interprocess4moveISt4pairIKi16ShPendingCommandEEENS_10disable_ifINS0_10is_movableIT_EERS8_E4typeESA_ @268
    _ZN5boost12interprocess6detail10close_fileEPv @269
    _ZN5boost12interprocess6detail10write_fileEPvPKvj @270
    _ZN5boost12interprocess6detail11get_pointerINS0_10offset_ptrI6PP_PosEEEENS1_14smart_ptr_typeIT_E7pointerERKS7_ @271
    _ZN5boost12interprocess6detail11get_pointerINS0_10offset_ptrI9ShCommandEEEENS1_14smart_ptr_typeIT_E7pointerERKS7_ @272
    _ZN5boost12interprocess6detail11get_pointerINS0_10offset_ptrINS0_15segment_managerIcNS0_15rbtree_best_fitINS0_12mutex_familyENS3_IvEELj0EEENS0_10iset_indexEEEEEEENS1_14smart_ptr_typeIT_E7pointerERKSD_ @273
    _ZN5boost12interprocess6detail11get_pointerINS0_10offset_ptrINS_22interprocess_container17containers_detail11rbtree_nodeISt4pairIKi16ShPendingCommandENS3_IvEEEEEEEENS1_14smart_ptr_typeIT_E7pointerERKSF_ @274
    _ZN5boost12interprocess6detail11get_pointerINS0_10offset_ptrIfEEEENS1_14smart_ptr_typeIT_E7pointerERKS6_ @275
    _ZN5boost12interprocess6detail11get_pointerINS0_10offset_ptrIiEEEENS1_14smart_ptr_typeIT_E7pointerERKS6_ @276
    _ZN5boost12interprocess6detail11get_pointerINS0_10offset_ptrIvEEEENS1_14smart_ptr_typeIT_E7pointerERKS6_ @277
    _ZN5boost12interprocess6detail11get_pointerIPNS0_15rbtree_best_fitINS0_12mutex_familyENS0_10offset_ptrIvEELj0EE10block_ctrlEEENS1_14smart_ptr_typeIT_E7pointerERKSB_ @278
    _ZN5boost12interprocess6detail11get_pointerIPvEENS1_14smart_ptr_typeIT_E7pointerERKS5_ @279
    _ZN5boost12interprocess6detail11named_proxyINS0_15segment_managerIcNS0_15rbtree_best_fitINS0_12mutex_familyENS0_10offset_ptrIvEELj0EEENS0_10iset_indexEEENS_22interprocess_container6vectorIfNS0_9allocatorIfSA_EEEELb0EEC1EPSA_PKcbb @280
    _ZN5boost12interprocess6detail12atomic_cas32EPVjjj @281
    _ZN5boost12interprocess6detail12block_header23block_header_from_valueEPKvjj @282
    _ZN5boost12interprocess6detail12block_headerC1Ejjjjj @283
    _ZN5boost12interprocess6detail12block_headerD1Ev @284
    _ZN5boost12interprocess6detail12invalid_fileEv @285
    _ZN5boost12interprocess6detail12thread_yieldEv @286
    _ZN5boost12interprocess6detail13atomic_read32EPVj @287
    _ZN5boost12interprocess6detail13get_bootstampERSsb @288
    _ZN5boost12interprocess6detail13get_file_sizeEPvRx @289
    _ZN5boost12interprocess6detail13truncate_fileEPvj @290
    _ZN5boost12interprocess6detail14atomic_write32EPVjj @291
    _ZN5boost12interprocess6detail14smart_ptr_typeINS0_10offset_ptrI6PP_PosEEE3getERKS5_ @292
    _ZN5boost12interprocess6detail14smart_ptr_typeINS0_10offset_ptrI9ShCommandEEE3getERKS5_ @293
    _ZN5boost12interprocess6detail14smart_ptr_typeINS0_10offset_ptrINS0_15segment_managerIcNS0_15rbtree_best_fitINS0_12mutex_familyENS3_IvEELj0EEENS0_10iset_indexEEEEEE3getERKSB_ @294
    _ZN5boost12interprocess6detail14smart_ptr_typeINS0_10offset_ptrINS_22interprocess_container17containers_detail11rbtree_nodeISt4pairIKi16ShPendingCommandENS3_IvEEEEEEE3getERKSD_ @295
    _ZN5boost12interprocess6detail14smart_ptr_typeINS0_10offset_ptrIfEEE3getERKS4_ @296
    _ZN5boost12interprocess6detail14smart_ptr_typeINS0_10offset_ptrIiEEE3getERKS4_ @297
    _ZN5boost12interprocess6detail14smart_ptr_typeINS0_10offset_ptrIvEEE3getERKS4_ @298
    _ZN5boost12interprocess6detail14smart_ptr_typeIPNS0_15rbtree_best_fitINS0_12mutex_familyENS0_10offset_ptrIvEELj0EE10block_ctrlEE3getES9_ @299
    _ZN5boost12interprocess6detail14smart_ptr_typeIPvE3getES3_ @300
    _ZN5boost12interprocess6detail15array_constructEPvjRNS1_18in_place_interfaceE @301
    _ZN5boost12interprocess6detail15char_ptr_holderIcEC1EPKc @302
    _ZN5boost12interprocess6detail15char_ptr_holderIcEcvPKcEv @303
    _ZN5boost12interprocess6detail15create_new_fileEPKcNS0_6mode_tEb @304
    _ZN5boost12interprocess6detail15equal_thread_idEmm @305
    _ZN5boost12interprocess6detail16create_directoryEPKc @306
    _ZN5boost12interprocess6detail16create_open_funcINS1_25basic_managed_memory_implIcNS0_15rbtree_best_fitINS0_12mutex_familyENS0_10offset_ptrIvEELj0EEENS0_10iset_indexELj8EEEEC1EPSA_NS1_13create_enum_tE @307
    _ZN5boost12interprocess6detail16get_rounded_sizeEjj @308
    _ZN5boost12interprocess6detail16set_file_pointerEPvxNS0_10file_pos_tE @309
    _ZN5boost12interprocess6detail17placement_destroyI6PP_PosE11construct_nEPvjRj @310
    _ZN5boost12interprocess6detail17placement_destroyI6PP_PosE9destroy_nEPvjRj @311
    _ZN5boost12interprocess6detail17placement_destroyI6PP_PosEC1Ev @312
    _ZN5boost12interprocess6detail17placement_destroyI6PP_PosED0Ev @313
    _ZN5boost12interprocess6detail17placement_destroyI6PP_PosED1Ev @314
    _ZN5boost12interprocess6detail17placement_destroyINS0_18interprocess_mutexEE11construct_nEPvjRj @315
    _ZN5boost12interprocess6detail17placement_destroyINS0_18interprocess_mutexEE9destroy_nEPvjRj @316
    _ZN5boost12interprocess6detail17placement_destroyINS0_18interprocess_mutexEEC1Ev @317
    _ZN5boost12interprocess6detail17placement_destroyINS0_18interprocess_mutexEED0Ev @318
    _ZN5boost12interprocess6detail17placement_destroyINS0_18interprocess_mutexEED1Ev @319
    _ZN5boost12interprocess6detail17placement_destroyINS_22interprocess_container3mapIi16ShPendingCommandSt4lessIiENS0_9allocatorISt4pairIKiS5_ENS0_15segment_managerIcNS0_15rbtree_best_fitINS0_12mutex_familyENS0_10offset_ptrIvEELj0EEENS0_10iset_indexEEEEEEEE11construct_nEPvjRj @320
    _ZN5boost12interprocess6detail17placement_destroyINS_22interprocess_container3mapIi16ShPendingCommandSt4lessIiENS0_9allocatorISt4pairIKiS5_ENS0_15segment_managerIcNS0_15rbtree_best_fitINS0_12mutex_familyENS0_10offset_ptrIvEELj0EEENS0_10iset_indexEEEEEEEE9destroy_nEPvjRj @321
    _ZN5boost12interprocess6detail17placement_destroyINS_22interprocess_container3mapIi16ShPendingCommandSt4lessIiENS0_9allocatorISt4pairIKiS5_ENS0_15segment_managerIcNS0_15rbtree_best_fitINS0_12mutex_familyENS0_10offset_ptrIvEELj0EEENS0_10iset_indexEEEEEEEEC1Ev @322
    _ZN5boost12interprocess6detail17placement_destroyINS_22interprocess_container3mapIi16ShPendingCommandSt4lessIiENS0_9allocatorISt4pairIKiS5_ENS0_15segment_managerIcNS0_15rbtree_best_fitINS0_12mutex_familyENS0_10offset_ptrIvEELj0EEENS0_10iset_indexEEEEEEEED0Ev @323
    _ZN5boost12interprocess6detail17placement_destroyINS_22interprocess_container3mapIi16ShPendingCommandSt4lessIiENS0_9allocatorISt4pairIKiS5_ENS0_15segment_managerIcNS0_15rbtree_best_fitINS0_12mutex_familyENS0_10offset_ptrIvEELj0EEENS0_10iset_indexEEEEEEEED1Ev @324
    _ZN5boost12interprocess6detail17placement_destroyINS_22interprocess_container3mapIi6ShUnitSt4lessIiENS0_9allocatorISt4pairIKiS5_ENS0_15segment_managerIcNS0_15rbtree_best_fitINS0_12mutex_familyENS0_10offset_ptrIvEELj0EEENS0_10iset_indexEEEEEEEE11construct_nEPvjRj @325
    _ZN5boost12interprocess6detail17placement_destroyINS_22interprocess_container3mapIi6ShUnitSt4lessIiENS0_9allocatorISt4pairIKiS5_ENS0_15segment_managerIcNS0_15rbtree_best_fitINS0_12mutex_familyENS0_10offset_ptrIvEELj0EEENS0_10iset_indexEEEEEEEE9destroy_nEPvjRj @326
    _ZN5boost12interprocess6detail17placement_destroyINS_22interprocess_container3mapIi6ShUnitSt4lessIiENS0_9allocatorISt4pairIKiS5_ENS0_15segment_managerIcNS0_15rbtree_best_fitINS0_12mutex_familyENS0_10offset_ptrIvEELj0EEENS0_10iset_indexEEEEEEEEC1Ev @327
    _ZN5boost12interprocess6detail17placement_destroyINS_22interprocess_container3mapIi6ShUnitSt4lessIiENS0_9allocatorISt4pairIKiS5_ENS0_15segment_managerIcNS0_15rbtree_best_fitINS0_12mutex_familyENS0_10offset_ptrIvEELj0EEENS0_10iset_indexEEEEEEEED0Ev @328
    _ZN5boost12interprocess6detail17placement_destroyINS_22interprocess_container3mapIi6ShUnitSt4lessIiENS0_9allocatorISt4pairIKiS5_ENS0_15segment_managerIcNS0_15rbtree_best_fitINS0_12mutex_familyENS0_10offset_ptrIvEELj0EEENS0_10iset_indexEEEEEEEED1Ev @329
    _ZN5boost12interprocess6detail17placement_destroyINS_22interprocess_container6vectorI6PP_PosNS0_9allocatorIS5_NS0_15segment_managerIcNS0_15rbtree_best_fitINS0_12mutex_familyENS0_10offset_ptrIvEELj0EEENS0_10iset_indexEEEEEEEE11construct_nEPvjRj @330
    _ZN5boost12interprocess6detail17placement_destroyINS_22interprocess_container6vectorI6PP_PosNS0_9allocatorIS5_NS0_15segment_managerIcNS0_15rbtree_best_fitINS0_12mutex_familyENS0_10offset_ptrIvEELj0EEENS0_10iset_indexEEEEEEEE9destroy_nEPvjRj @331
    _ZN5boost12interprocess6detail17placement_destroyINS_22interprocess_container6vectorI6PP_PosNS0_9allocatorIS5_NS0_15segment_managerIcNS0_15rbtree_best_fitINS0_12mutex_familyENS0_10offset_ptrIvEELj0EEENS0_10iset_indexEEEEEEEEC1Ev @332
    _ZN5boost12interprocess6detail17placement_destroyINS_22interprocess_container6vectorI6PP_PosNS0_9allocatorIS5_NS0_15segment_managerIcNS0_15rbtree_best_fitINS0_12mutex_familyENS0_10offset_ptrIvEELj0EEENS0_10iset_indexEEEEEEEED0Ev @333
    _ZN5boost12interprocess6detail17placement_destroyINS_22interprocess_container6vectorI6PP_PosNS0_9allocatorIS5_NS0_15segment_managerIcNS0_15rbtree_best_fitINS0_12mutex_familyENS0_10offset_ptrIvEELj0EEENS0_10iset_indexEEEEEEEED1Ev @334
    _ZN5boost12interprocess6detail17placement_destroyINS_22interprocess_container6vectorI9ShCommandNS0_9allocatorIS5_NS0_15segment_managerIcNS0_15rbtree_best_fitINS0_12mutex_familyENS0_10offset_ptrIvEELj0EEENS0_10iset_indexEEEEEEEE11construct_nEPvjRj @335
    _ZN5boost12interprocess6detail17placement_destroyINS_22interprocess_container6vectorI9ShCommandNS0_9allocatorIS5_NS0_15segment_managerIcNS0_15rbtree_best_fitINS0_12mutex_familyENS0_10offset_ptrIvEELj0EEENS0_10iset_indexEEEEEEEE9destroy_nEPvjRj @336
    _ZN5boost12interprocess6detail17placement_destroyINS_22interprocess_container6vectorI9ShCommandNS0_9allocatorIS5_NS0_15segment_managerIcNS0_15rbtree_best_fitINS0_12mutex_familyENS0_10offset_ptrIvEELj0EEENS0_10iset_indexEEEEEEEEC1Ev @337
    _ZN5boost12interprocess6detail17placement_destroyINS_22interprocess_container6vectorI9ShCommandNS0_9allocatorIS5_NS0_15segment_managerIcNS0_15rbtree_best_fitINS0_12mutex_familyENS0_10offset_ptrIvEELj0EEENS0_10iset_indexEEEEEEEED0Ev @338
    _ZN5boost12interprocess6detail17placement_destroyINS_22interprocess_container6vectorI9ShCommandNS0_9allocatorIS5_NS0_15segment_managerIcNS0_15rbtree_best_fitINS0_12mutex_familyENS0_10offset_ptrIvEELj0EEENS0_10iset_indexEEEEEEEED1Ev @339
    _ZN5boost12interprocess6detail17placement_destroyINS_22interprocess_container6vectorIfNS0_9allocatorIfNS0_15segment_managerIcNS0_15rbtree_best_fitINS0_12mutex_familyENS0_10offset_ptrIvEELj0EEENS0_10iset_indexEEEEEEEE11construct_nEPvjRj @340
    _ZN5boost12interprocess6detail17placement_destroyINS_22interprocess_container6vectorIfNS0_9allocatorIfNS0_15segment_managerIcNS0_15rbtree_best_fitINS0_12mutex_familyENS0_10offset_ptrIvEELj0EEENS0_10iset_indexEEEEEEEE9destroy_nEPvjRj @341
    _ZN5boost12interprocess6detail17placement_destroyINS_22interprocess_container6vectorIfNS0_9allocatorIfNS0_15segment_managerIcNS0_15rbtree_best_fitINS0_12mutex_familyENS0_10offset_ptrIvEELj0EEENS0_10iset_indexEEEEEEEEC1Ev @342
    _ZN5boost12interprocess6detail17placement_destroyINS_22interprocess_container6vectorIfNS0_9allocatorIfNS0_15segment_managerIcNS0_15rbtree_best_fitINS0_12mutex_familyENS0_10offset_ptrIvEELj0EEENS0_10iset_indexEEEEEEEEC2Ev @343
    _ZN5boost12interprocess6detail17placement_destroyINS_22interprocess_container6vectorIfNS0_9allocatorIfNS0_15segment_managerIcNS0_15rbtree_best_fitINS0_12mutex_familyENS0_10offset_ptrIvEELj0EEENS0_10iset_indexEEEEEEEED0Ev @344
    _ZN5boost12interprocess6detail17placement_destroyINS_22interprocess_container6vectorIfNS0_9allocatorIfNS0_15segment_managerIcNS0_15rbtree_best_fitINS0_12mutex_familyENS0_10offset_ptrIvEELj0EEENS0_10iset_indexEEEEEEEED1Ev @345
    _ZN5boost12interprocess6detail17placement_destroyINS_22interprocess_container6vectorIfNS0_9allocatorIfNS0_15segment_managerIcNS0_15rbtree_best_fitINS0_12mutex_familyENS0_10offset_ptrIvEELj0EEENS0_10iset_indexEEEEEEEED2Ev @346
    _ZN5boost12interprocess6detail17placement_destroyINS_22interprocess_container6vectorIiNS0_9allocatorIiNS0_15segment_managerIcNS0_15rbtree_best_fitINS0_12mutex_familyENS0_10offset_ptrIvEELj0EEENS0_10iset_indexEEEEEEEE11construct_nEPvjRj @347
    _ZN5boost12interprocess6detail17placement_destroyINS_22interprocess_container6vectorIiNS0_9allocatorIiNS0_15segment_managerIcNS0_15rbtree_best_fitINS0_12mutex_familyENS0_10offset_ptrIvEELj0EEENS0_10iset_indexEEEEEEEE9destroy_nEPvjRj @348
    _ZN5boost12interprocess6detail17placement_destroyINS_22interprocess_container6vectorIiNS0_9allocatorIiNS0_15segment_managerIcNS0_15rbtree_best_fitINS0_12mutex_familyENS0_10offset_ptrIvEELj0EEENS0_10iset_indexEEEEEEEEC1Ev @349
    _ZN5boost12interprocess6detail17placement_destroyINS_22interprocess_container6vectorIiNS0_9allocatorIiNS0_15segment_managerIcNS0_15rbtree_best_fitINS0_12mutex_familyENS0_10offset_ptrIvEELj0EEENS0_10iset_indexEEEEEEEED0Ev @350
    _ZN5boost12interprocess6detail17placement_destroyINS_22interprocess_container6vectorIiNS0_9allocatorIiNS0_15segment_managerIcNS0_15rbtree_best_fitINS0_12mutex_familyENS0_10offset_ptrIvEELj0EEENS0_10iset_indexEEEEEEEED1Ev @351
    _ZN5boost12interprocess6detail17placement_destroyIbE11construct_nEPvjRj @352
    _ZN5boost12interprocess6detail17placement_destroyIbE9destroy_nEPvjRj @353
    _ZN5boost12interprocess6detail17placement_destroyIbEC1Ev @354
    _ZN5boost12interprocess6detail17placement_destroyIbED0Ev @355
    _ZN5boost12interprocess6detail17placement_destroyIbED1Ev @356
    _ZN5boost12interprocess6detail18get_temporary_pathEv @357
    _ZN5boost12interprocess6detail18get_truncated_sizeEjj @358
    _ZN5boost12interprocess6detail18in_place_interfaceC2EjjPKc @359
    _ZN5boost12interprocess6detail18in_place_interfaceD0Ev @360
    _ZN5boost12interprocess6detail18in_place_interfaceD1Ev @361
    _ZN5boost12interprocess6detail18in_place_interfaceD2Ev @362
    _ZN5boost12interprocess6detail18open_existing_fileEPKcNS0_6mode_tEb @363
    _ZN5boost12interprocess6detail19create_or_open_fileEPKcNS0_6mode_tEb @364
    _ZN5boost12interprocess6detail20get_rounded_size_po2Ejj @365
    _ZN5boost12interprocess6detail20mem_algo_deallocatorINS0_15rbtree_best_fitINS0_12mutex_familyENS0_10offset_ptrIvEELj0EEEE7releaseEv @366
    _ZN5boost12interprocess6detail20mem_algo_deallocatorINS0_15rbtree_best_fitINS0_12mutex_familyENS0_10offset_ptrIvEELj0EEEEC1EPvRS7_ @367
    _ZN5boost12interprocess6detail20mem_algo_deallocatorINS0_15rbtree_best_fitINS0_12mutex_familyENS0_10offset_ptrIvEELj0EEEED1Ev @368
    _ZN5boost12interprocess6detail20mem_algo_deallocatorINS0_20segment_manager_baseINS0_15rbtree_best_fitINS0_12mutex_familyENS0_10offset_ptrIvEELj0EEEEEE7releaseEv @369
    _ZN5boost12interprocess6detail20mem_algo_deallocatorINS0_20segment_manager_baseINS0_15rbtree_best_fitINS0_12mutex_familyENS0_10offset_ptrIvEELj0EEEEEEC1EPvRS9_ @370
    _ZN5boost12interprocess6detail20mem_algo_deallocatorINS0_20segment_manager_baseINS0_15rbtree_best_fitINS0_12mutex_familyENS0_10offset_ptrIvEELj0EEEEEED1Ev @371
    _ZN5boost12interprocess6detail21delete_subdirectoriesERKSsPKc @372
    _ZN5boost12interprocess6detail21get_current_thread_idEv @373
    _ZN5boost12interprocess6detail21get_invalid_thread_idEv @374
    _ZN5boost12interprocess6detail21intrusive_compare_keyIcEC1EPKcj @375
    _ZN5boost12interprocess6detail22get_truncated_size_po2Ejj @376
    _ZN5boost12interprocess6detail23memory_algorithm_commonINS0_15rbtree_best_fitINS0_12mutex_familyENS0_10offset_ptrIvEELj0EEEE10ceil_unitsEj @377
    _ZN5boost12interprocess6detail23memory_algorithm_commonINS0_15rbtree_best_fitINS0_12mutex_familyENS0_10offset_ptrIvEELj0EEEE10try_shrinkEPS7_PvjjRj @378
    _ZN5boost12interprocess6detail23memory_algorithm_commonINS0_15rbtree_best_fitINS0_12mutex_familyENS0_10offset_ptrIvEELj0EEEE11floor_unitsEj @379
    _ZN5boost12interprocess6detail23memory_algorithm_commonINS0_15rbtree_best_fitINS0_12mutex_familyENS0_10offset_ptrIvEELj0EEEE15check_alignmentEPKv @380
    _ZN5boost12interprocess6detail23memory_algorithm_commonINS0_15rbtree_best_fitINS0_12mutex_familyENS0_10offset_ptrIvEELj0EEEE15deallocate_manyEPS7_NS1_42basic_multiallocation_cached_counted_slistINS1_34basic_multiallocation_cached_slistIS6_EEEE @381
    _ZN5boost12interprocess6detail23memory_algorithm_commonINS0_15rbtree_best_fitINS0_12mutex_familyENS0_10offset_ptrIvEELj0EEEE16assert_alignmentEPKv @382
    _ZN5boost12interprocess6detail23memory_algorithm_commonINS0_15rbtree_best_fitINS0_12mutex_familyENS0_10offset_ptrIvEELj0EEEE16assert_alignmentEj @383
    _ZN5boost12interprocess6detail23memory_algorithm_commonINS0_15rbtree_best_fitINS0_12mutex_familyENS0_10offset_ptrIvEELj0EEEE20priv_deallocate_manyEPS7_NS1_42basic_multiallocation_cached_counted_slistINS1_34basic_multiallocation_cached_slistIS6_EEEE @384
    _ZN5boost12interprocess6detail23memory_algorithm_commonINS0_15rbtree_best_fitINS0_12mutex_familyENS0_10offset_ptrIvEELj0EEEE39calculate_lcm_and_needs_backwards_lcmedEjjjRjS9_ @385
    _ZN5boost12interprocess6detail23memory_algorithm_commonINS0_15rbtree_best_fitINS0_12mutex_familyENS0_10offset_ptrIvEELj0EEEE6shrinkEPS7_PvjjRj @386
    _ZN5boost12interprocess6detail25basic_managed_memory_implIcNS0_15rbtree_best_fitINS0_12mutex_familyENS0_10offset_ptrIvEELj0EEENS0_10iset_indexELj8EE10close_implEv @387
    _ZN5boost12interprocess6detail25basic_managed_memory_implIcNS0_15rbtree_best_fitINS0_12mutex_familyENS0_10offset_ptrIvEELj0EEENS0_10iset_indexELj8EE11create_implEPvj @388
    _ZN5boost12interprocess6detail25basic_managed_memory_implIcNS0_15rbtree_best_fitINS0_12mutex_familyENS0_10offset_ptrIvEELj0EEENS0_10iset_indexELj8EE11destroy_ptrINS_22interprocess_container6vectorIfNS0_9allocatorIfNS0_15segment_managerIcS7_S8_EEEEEEEEvPKT_ @389
    _ZN5boost12interprocess6detail25basic_managed_memory_implIcNS0_15rbtree_best_fitINS0_12mutex_familyENS0_10offset_ptrIvEELj0EEENS0_10iset_indexELj8EE12find_no_lockI6PP_PosEESt4pairIPT_jENS1_15char_ptr_holderIcEE @390
    _ZN5boost12interprocess6detail25basic_managed_memory_implIcNS0_15rbtree_best_fitINS0_12mutex_familyENS0_10offset_ptrIvEELj0EEENS0_10iset_indexELj8EE12find_no_lockINS0_18interprocess_mutexEEESt4pairIPT_jENS1_15char_ptr_holderIcEE @391
    _ZN5boost12interprocess6detail25basic_managed_memory_implIcNS0_15rbtree_best_fitINS0_12mutex_familyENS0_10offset_ptrIvEELj0EEENS0_10iset_indexELj8EE12find_no_lockINS_22interprocess_container3mapIi16ShPendingCommandSt4lessIiENS0_9allocatorISt4pairIKiSD_ENS0_15segment_managerIcS7_S8_EEEEEEEESH_IPT_jENS1_15char_ptr_holderIcEE @392
    _ZN5boost12interprocess6detail25basic_managed_memory_implIcNS0_15rbtree_best_fitINS0_12mutex_familyENS0_10offset_ptrIvEELj0EEENS0_10iset_indexELj8EE12find_no_lockINS_22interprocess_container3mapIi6ShUnitSt4lessIiENS0_9allocatorISt4pairIKiSD_ENS0_15segment_managerIcS7_S8_EEEEEEEESH_IPT_jENS1_15char_ptr_holderIcEE @393
    _ZN5boost12interprocess6detail25basic_managed_memory_implIcNS0_15rbtree_best_fitINS0_12mutex_familyENS0_10offset_ptrIvEELj0EEENS0_10iset_indexELj8EE12find_no_lockINS_22interprocess_container6vectorI6PP_PosNS0_9allocatorISD_NS0_15segment_managerIcS7_S8_EEEEEEEESt4pairIPT_jENS1_15char_ptr_holderIcEE @394
    _ZN5boost12interprocess6detail25basic_managed_memory_implIcNS0_15rbtree_best_fitINS0_12mutex_familyENS0_10offset_ptrIvEELj0EEENS0_10iset_indexELj8EE12find_no_lockINS_22interprocess_container6vectorI9ShCommandNS0_9allocatorISD_NS0_15segment_managerIcS7_S8_EEEEEEEESt4pairIPT_jENS1_15char_ptr_holderIcEE @395
    _ZN5boost12interprocess6detail25basic_managed_memory_implIcNS0_15rbtree_best_fitINS0_12mutex_familyENS0_10offset_ptrIvEELj0EEENS0_10iset_indexELj8EE12find_no_lockINS_22interprocess_container6vectorIfNS0_9allocatorIfNS0_15segment_managerIcS7_S8_EEEEEEEESt4pairIPT_jENS1_15char_ptr_holderIcEE @396
    _ZN5boost12interprocess6detail25basic_managed_memory_implIcNS0_15rbtree_best_fitINS0_12mutex_familyENS0_10offset_ptrIvEELj0EEENS0_10iset_indexELj8EE12find_no_lockINS_22interprocess_container6vectorIiNS0_9allocatorIiNS0_15segment_managerIcS7_S8_EEEEEEEESt4pairIPT_jENS1_15char_ptr_holderIcEE @397
    _ZN5boost12interprocess6detail25basic_managed_memory_implIcNS0_15rbtree_best_fitINS0_12mutex_familyENS0_10offset_ptrIvEELj0EEENS0_10iset_indexELj8EE12find_no_lockIbEESt4pairIPT_jENS1_15char_ptr_holderIcEE @398
    _ZN5boost12interprocess6detail25basic_managed_memory_implIcNS0_15rbtree_best_fitINS0_12mutex_familyENS0_10offset_ptrIvEELj0EEENS0_10iset_indexELj8EE4findI6PP_PosEESt4pairIPT_jENS1_15char_ptr_holderIcEE @399
    _ZN5boost12interprocess6detail25basic_managed_memory_implIcNS0_15rbtree_best_fitINS0_12mutex_familyENS0_10offset_ptrIvEELj0EEENS0_10iset_indexELj8EE4findINS0_18interprocess_mutexEEESt4pairIPT_jENS1_15char_ptr_holderIcEE @400
    _ZN5boost12interprocess6detail25basic_managed_memory_implIcNS0_15rbtree_best_fitINS0_12mutex_familyENS0_10offset_ptrIvEELj0EEENS0_10iset_indexELj8EE4findINS_22interprocess_container3mapIi16ShPendingCommandSt4lessIiENS0_9allocatorISt4pairIKiSD_ENS0_15segment_managerIcS7_S8_EEEEEEEESH_IPT_jENS1_15char_ptr_holderIcEE @401
    _ZN5boost12interprocess6detail25basic_managed_memory_implIcNS0_15rbtree_best_fitINS0_12mutex_familyENS0_10offset_ptrIvEELj0EEENS0_10iset_indexELj8EE4findINS_22interprocess_container3mapIi6ShUnitSt4lessIiENS0_9allocatorISt4pairIKiSD_ENS0_15segment_managerIcS7_S8_EEEEEEEESH_IPT_jENS1_15char_ptr_holderIcEE @402
    _ZN5boost12interprocess6detail25basic_managed_memory_implIcNS0_15rbtree_best_fitINS0_12mutex_familyENS0_10offset_ptrIvEELj0EEENS0_10iset_indexELj8EE4findINS_22interprocess_container6vectorI6PP_PosNS0_9allocatorISD_NS0_15segment_managerIcS7_S8_EEEEEEEESt4pairIPT_jENS1_15char_ptr_holderIcEE @403
    _ZN5boost12interprocess6detail25basic_managed_memory_implIcNS0_15rbtree_best_fitINS0_12mutex_familyENS0_10offset_ptrIvEELj0EEENS0_10iset_indexELj8EE4findINS_22interprocess_container6vectorI9ShCommandNS0_9allocatorISD_NS0_15segment_managerIcS7_S8_EEEEEEEESt4pairIPT_jENS1_15char_ptr_holderIcEE @404
    _ZN5boost12interprocess6detail25basic_managed_memory_implIcNS0_15rbtree_best_fitINS0_12mutex_familyENS0_10offset_ptrIvEELj0EEENS0_10iset_indexELj8EE4findINS_22interprocess_container6vectorIfNS0_9allocatorIfNS0_15segment_managerIcS7_S8_EEEEEEEESt4pairIPT_jENS1_15char_ptr_holderIcEE @405
    _ZN5boost12interprocess6detail25basic_managed_memory_implIcNS0_15rbtree_best_fitINS0_12mutex_familyENS0_10offset_ptrIvEELj0EEENS0_10iset_indexELj8EE4findINS_22interprocess_container6vectorIiNS0_9allocatorIiNS0_15segment_managerIcS7_S8_EEEEEEEESt4pairIPT_jENS1_15char_ptr_holderIcEE @406
    _ZN5boost12interprocess6detail25basic_managed_memory_implIcNS0_15rbtree_best_fitINS0_12mutex_familyENS0_10offset_ptrIvEELj0EEENS0_10iset_indexELj8EE4findIbEESt4pairIPT_jENS1_15char_ptr_holderIcEE @407
    _ZN5boost12interprocess6detail25basic_managed_memory_implIcNS0_15rbtree_best_fitINS0_12mutex_familyENS0_10offset_ptrIvEELj0EEENS0_10iset_indexELj8EE9constructINS_22interprocess_container6vectorIfNS0_9allocatorIfNS0_15segment_managerIcS7_S8_EEEEEEEENSF_15construct_proxyIT_E4typeENS1_15char_ptr_holderIcEE @408
    _ZN5boost12interprocess6detail25basic_managed_memory_implIcNS0_15rbtree_best_fitINS0_12mutex_familyENS0_10offset_ptrIvEELj0EEENS0_10iset_indexELj8EE9open_implEPvj @409
    _ZN5boost12interprocess6detail25basic_managed_memory_implIcNS0_15rbtree_best_fitINS0_12mutex_familyENS0_10offset_ptrIvEELj0EEENS0_10iset_indexELj8EEC2Ev @410
    _ZN5boost12interprocess6detail25basic_managed_memory_implIcNS0_15rbtree_best_fitINS0_12mutex_familyENS0_10offset_ptrIvEELj0EEENS0_10iset_indexELj8EED2Ev @411
    _ZN5boost12interprocess6detail25intrusive_value_type_implINS_9intrusive6detail12generic_hookINS3_17get_set_node_algoINS0_10offset_ptrIvEELb1EEENS3_11default_tagELNS3_14link_mode_typeE1ELi3EEEcE24get_intrusive_value_typeEPNS1_12block_headerE @412
    _ZN5boost12interprocess6detail25intrusive_value_type_implINS_9intrusive6detail12generic_hookINS3_17get_set_node_algoINS0_10offset_ptrIvEELb1EEENS3_11default_tagELNS3_14link_mode_typeE1ELi3EEEcEC1Ev @413
    _ZN5boost12interprocess6detail25intrusive_value_type_implINS_9intrusive6detail12generic_hookINS3_17get_set_node_algoINS0_10offset_ptrIvEELb1EEENS3_11default_tagELNS3_14link_mode_typeE1ELi3EEEcED1Ev @414
    _ZN5boost12interprocess6detail25systemwide_thread_id_copyERVKmRVm @415
    _ZN5boost12interprocess6detail26equal_systemwide_thread_idERKmS3_ @416
    _ZN5boost12interprocess6detail27basic_multiallocation_slistINS0_10offset_ptrIvEEE11iterator_toES4_ @417
    _ZN5boost12interprocess6detail27basic_multiallocation_slistINS0_10offset_ptrIvEEE12insert_afterENS5_8iteratorES4_ @418
    _ZN5boost12interprocess6detail27basic_multiallocation_slistINS0_10offset_ptrIvEEE12priv_get_refERKS4_ @419
    _ZN5boost12interprocess6detail27basic_multiallocation_slistINS0_10offset_ptrIvEEE4swapERS5_ @420
    _ZN5boost12interprocess6detail27basic_multiallocation_slistINS0_10offset_ptrIvEEE8iteratorC1ERKS6_ @421
    _ZN5boost12interprocess6detail27basic_multiallocation_slistINS0_10offset_ptrIvEEE8iteratorC1ES4_ @422
    _ZN5boost12interprocess6detail27basic_multiallocation_slistINS0_10offset_ptrIvEEE8iteratorC1Ev @423
    _ZN5boost12interprocess6detail27basic_multiallocation_slistINS0_10offset_ptrIvEEE8iteratoraSERKS6_ @424
    _ZN5boost12interprocess6detail27basic_multiallocation_slistINS0_10offset_ptrIvEEE8iteratorppEv @425
    _ZN5boost12interprocess6detail27basic_multiallocation_slistINS0_10offset_ptrIvEEE9pop_frontEv @426
    _ZN5boost12interprocess6detail27basic_multiallocation_slistINS0_10offset_ptrIvEEEC1Ev @427
    _ZN5boost12interprocess6detail27managed_open_or_create_implINS0_20shared_memory_objectELb1EE13create_deviceILb1EEEvRS3_PKcjNS1_5bool_ILb1EEE @428
    _ZN5boost12interprocess6detail27managed_open_or_create_implINS0_20shared_memory_objectELb1EE15truncate_deviceILb1EEEvRS3_jNS1_5bool_ILb1EEE @429
    _ZN5boost12interprocess6detail27managed_open_or_create_implINS0_20shared_memory_objectELb1EE18write_whole_deviceILb1EEEvRS3_jNS1_5bool_ILb1EEE @430
    _ZN5boost12interprocess6detail27managed_open_or_create_implINS0_20shared_memory_objectELb1EE19priv_open_or_createINS1_16create_open_funcINS1_25basic_managed_memory_implIcNS0_15rbtree_best_fitINS0_12mutex_familyENS0_10offset_ptrIvEELj0EEENS0_10iset_indexELj8EEEEEEEvNS1_13create_enum_tEjNS0_6mode_tEPKvT_ @431
    _ZN5boost12interprocess6detail27managed_open_or_create_implINS0_20shared_memory_objectELb1EEC2INS1_16create_open_funcINS1_25basic_managed_memory_implIcNS0_15rbtree_best_fitINS0_12mutex_familyENS0_10offset_ptrIvEELj0EEENS0_10iset_indexELj8EEEEEEENS0_11open_only_tEPKcNS0_6mode_tEPKvRKT_ @432
    _ZN5boost12interprocess6detail27managed_open_or_create_implINS0_20shared_memory_objectELb1EED2Ev @433
    _ZN5boost12interprocess6detail31create_tmp_dir_and_get_filenameEPKcRSs @434
    _ZN5boost12interprocess6detail31delete_subdirectories_recursiveERKSsPKcj @435
    _ZN5boost12interprocess6detail31file_handle_from_mapping_handleENS0_21mapping_handle_impl_tE @436
    _ZN5boost12interprocess6detail31mapping_handle_from_file_handleEPv @437
    _ZN5boost12interprocess6detail31transform_multiallocation_chainINS1_42basic_multiallocation_cached_counted_slistINS1_34basic_multiallocation_cached_slistINS0_10offset_ptrIvEEEEEENS_22interprocess_container17containers_detail11rbtree_nodeISt4pairIKi16ShPendingCommandES6_EEE10push_frontENS5_ISG_EE @438
    _ZN5boost12interprocess6detail31transform_multiallocation_chainINS1_42basic_multiallocation_cached_counted_slistINS1_34basic_multiallocation_cached_slistINS0_10offset_ptrIvEEEEEENS_22interprocess_container17containers_detail11rbtree_nodeISt4pairIKi16ShPendingCommandES6_EEE29extract_multiallocation_chainEv @439
    _ZN5boost12interprocess6detail31transform_multiallocation_chainINS1_42basic_multiallocation_cached_counted_slistINS1_34basic_multiallocation_cached_slistINS0_10offset_ptrIvEEEEEENS_22interprocess_container17containers_detail11rbtree_nodeISt4pairIKi16ShPendingCommandES6_EEE4swapERSH_ @440
    _ZN5boost12interprocess6detail31transform_multiallocation_chainINS1_42basic_multiallocation_cached_counted_slistINS1_34basic_multiallocation_cached_slistINS0_10offset_ptrIvEEEEEENS_22interprocess_container17containers_detail11rbtree_nodeISt4pairIKi16ShPendingCommandES6_EEEC1ERNS0_2rvISH_EE @441
    _ZN5boost12interprocess6detail31transform_multiallocation_chainINS1_42basic_multiallocation_cached_counted_slistINS1_34basic_multiallocation_cached_slistINS0_10offset_ptrIvEEEEEENS_22interprocess_container17containers_detail11rbtree_nodeISt4pairIKi16ShPendingCommandES6_EEEC1Ev @442
    _ZN5boost12interprocess6detail31transform_multiallocation_chainINS1_42basic_multiallocation_cached_counted_slistINS1_34basic_multiallocation_cached_slistINS0_10offset_ptrIvEEEEEENS_22interprocess_container17containers_detail11rbtree_nodeISt4pairIKi6ShUnitES6_EEE10push_frontENS5_ISG_EE @443
    _ZN5boost12interprocess6detail31transform_multiallocation_chainINS1_42basic_multiallocation_cached_counted_slistINS1_34basic_multiallocation_cached_slistINS0_10offset_ptrIvEEEEEENS_22interprocess_container17containers_detail11rbtree_nodeISt4pairIKi6ShUnitES6_EEE29extract_multiallocation_chainEv @444
    _ZN5boost12interprocess6detail31transform_multiallocation_chainINS1_42basic_multiallocation_cached_counted_slistINS1_34basic_multiallocation_cached_slistINS0_10offset_ptrIvEEEEEENS_22interprocess_container17containers_detail11rbtree_nodeISt4pairIKi6ShUnitES6_EEE4swapERSH_ @445
    _ZN5boost12interprocess6detail31transform_multiallocation_chainINS1_42basic_multiallocation_cached_counted_slistINS1_34basic_multiallocation_cached_slistINS0_10offset_ptrIvEEEEEENS_22interprocess_container17containers_detail11rbtree_nodeISt4pairIKi6ShUnitES6_EEEC1ERNS0_2rvISH_EE @446
    _ZN5boost12interprocess6detail31transform_multiallocation_chainINS1_42basic_multiallocation_cached_counted_slistINS1_34basic_multiallocation_cached_slistINS0_10offset_ptrIvEEEEEENS_22interprocess_container17containers_detail11rbtree_nodeISt4pairIKi6ShUnitES6_EEEC1Ev @447
    _ZN5boost12interprocess6detail32get_current_systemwide_thread_idEv @448
    _ZN5boost12interprocess6detail32get_invalid_systemwide_thread_idEv @449
    _ZN5boost12interprocess6detail34basic_multiallocation_cached_slistINS0_10offset_ptrIvEEE11iterator_toES4_ @450
    _ZN5boost12interprocess6detail34basic_multiallocation_cached_slistINS0_10offset_ptrIvEEE12insert_afterENS1_27basic_multiallocation_slistIS4_E8iteratorES4_ @451
    _ZN5boost12interprocess6detail34basic_multiallocation_cached_slistINS0_10offset_ptrIvEEE4swapERS5_ @452
    _ZN5boost12interprocess6detail34basic_multiallocation_cached_slistINS0_10offset_ptrIvEEE9pop_frontEv @453
    _ZN5boost12interprocess6detail34basic_multiallocation_cached_slistINS0_10offset_ptrIvEEEC1Ev @454
    _ZN5boost12interprocess6detail3gcdIjEET_S3_S3_ @455
    _ZN5boost12interprocess6detail3lcmIjEET_RKS3_S5_ @456
    _ZN5boost12interprocess6detail42basic_multiallocation_cached_counted_slistINS1_34basic_multiallocation_cached_slistINS0_10offset_ptrIvEEEEE10push_frontES5_ @457
    _ZN5boost12interprocess6detail42basic_multiallocation_cached_counted_slistINS1_34basic_multiallocation_cached_slistINS0_10offset_ptrIvEEEEE12insert_afterENS1_27basic_multiallocation_slistIS5_E8iteratorES5_ @458
    _ZN5boost12interprocess6detail42basic_multiallocation_cached_counted_slistINS1_34basic_multiallocation_cached_slistINS0_10offset_ptrIvEEEEE4swapERS7_ @459
    _ZN5boost12interprocess6detail42basic_multiallocation_cached_counted_slistINS1_34basic_multiallocation_cached_slistINS0_10offset_ptrIvEEEEE9pop_frontEv @460
    _ZN5boost12interprocess6detail42basic_multiallocation_cached_counted_slistINS1_34basic_multiallocation_cached_slistINS0_10offset_ptrIvEEEEEC1ERNS0_2rvIS7_EE @461
    _ZN5boost12interprocess6detail42basic_multiallocation_cached_counted_slistINS1_34basic_multiallocation_cached_slistINS0_10offset_ptrIvEEEEEC1Ev @462
    _ZN5boost12interprocess6detail42basic_multiallocation_cached_counted_slistINS1_34basic_multiallocation_cached_slistINS0_10offset_ptrIvEEEEEcvRNS0_2rvIS7_EEEv @463
    _ZN5boost12interprocess6detail7do_swapINS0_6mode_tEEEvRT_S5_ @464
    _ZN5boost12interprocess6detail7do_swapIPvEEvRT_S5_ @465
    _ZN5boost12interprocess6detail7do_swapIjEEvRT_S4_ @466
    _ZN5boost12interprocess6detail7do_swapIxEEvRT_S4_ @467
    _ZN5boost12interprocess6detail8Ctor3ArgINS_22interprocess_container6vectorIfNS0_9allocatorIfNS0_15segment_managerIcNS0_15rbtree_best_fitINS0_12mutex_familyENS0_10offset_ptrIvEELj0EEENS0_10iset_indexEEEEEEELb0EN9__gnu_cxx17__normal_iteratorIPKfSt6vectorIfSaIfEEEESN_SE_E11construct_nEPvjRj @468
    _ZN5boost12interprocess6detail8Ctor3ArgINS_22interprocess_container6vectorIfNS0_9allocatorIfNS0_15segment_managerIcNS0_15rbtree_best_fitINS0_12mutex_familyENS0_10offset_ptrIvEELj0EEENS0_10iset_indexEEEEEEELb0EN9__gnu_cxx17__normal_iteratorIPKfSt6vectorIfSaIfEEEESN_SE_E12do_incrementENS1_5bool_ILb0EEE @469
    _ZN5boost12interprocess6detail8Ctor3ArgINS_22interprocess_container6vectorIfNS0_9allocatorIfNS0_15segment_managerIcNS0_15rbtree_best_fitINS0_12mutex_familyENS0_10offset_ptrIvEELj0EEENS0_10iset_indexEEEEEEELb0EN9__gnu_cxx17__normal_iteratorIPKfSt6vectorIfSaIfEEEESN_SE_E9constructEPvNS1_5bool_ILb0EEE @470
    _ZN5boost12interprocess6detail8Ctor3ArgINS_22interprocess_container6vectorIfNS0_9allocatorIfNS0_15segment_managerIcNS0_15rbtree_best_fitINS0_12mutex_familyENS0_10offset_ptrIvEELj0EEENS0_10iset_indexEEEEEEELb0EN9__gnu_cxx17__normal_iteratorIPKfSt6vectorIfSaIfEEEESN_SE_EC1ERKSN_SQ_RKSE_ @471
    _ZN5boost12interprocess6detail8Ctor3ArgINS_22interprocess_container6vectorIfNS0_9allocatorIfNS0_15segment_managerIcNS0_15rbtree_best_fitINS0_12mutex_familyENS0_10offset_ptrIvEELj0EEENS0_10iset_indexEEEEEEELb0EN9__gnu_cxx17__normal_iteratorIPKfSt6vectorIfSaIfEEEESN_SE_ED0Ev @472
    _ZN5boost12interprocess6detail8Ctor3ArgINS_22interprocess_container6vectorIfNS0_9allocatorIfNS0_15segment_managerIcNS0_15rbtree_best_fitINS0_12mutex_familyENS0_10offset_ptrIvEELj0EEENS0_10iset_indexEEEEEEELb0EN9__gnu_cxx17__normal_iteratorIPKfSt6vectorIfSaIfEEEESN_SE_ED1Ev @473
    _ZN5boost12interprocess7forwardIN9__gnu_cxx17__normal_iteratorIPKfSt6vectorIfSaIfEEEEEENS_10disable_ifINS0_11move_detail5is_rvIT_EERKSD_E4typeERKNSB_8identityISD_E4typeE @474
    _ZN5boost12interprocess7forwardINS0_9allocatorIfNS0_15segment_managerIcNS0_15rbtree_best_fitINS0_12mutex_familyENS0_10offset_ptrIvEELj0EEENS0_10iset_indexEEEEEEENS_10disable_ifINS0_11move_detail5is_rvIT_EERKSF_E4typeERKNSD_8identityISF_E4typeE @475
    _ZN5boost12interprocess7forwardISt4pairIKi16ShPendingCommandEEENS_10disable_ifINS0_11move_detail5is_rvIT_EERKS9_E4typeERKNS7_8identityIS9_E4typeE @476
    _ZN5boost12interprocess9allocatorI6PP_PosNS0_15segment_managerIcNS0_15rbtree_best_fitINS0_12mutex_familyENS0_10offset_ptrIvEELj0EEENS0_10iset_indexEEEE10deallocateERKNS6_IS2_EEj @477
    _ZN5boost12interprocess9allocatorI9ShCommandNS0_15segment_managerIcNS0_15rbtree_best_fitINS0_12mutex_familyENS0_10offset_ptrIvEELj0EEENS0_10iset_indexEEEE10deallocateERKNS6_IS2_EEj @478
    _ZN5boost12interprocess9allocatorINS_22interprocess_container17containers_detail11rbtree_nodeISt4pairIKi16ShPendingCommandENS0_10offset_ptrIvEEEENS0_15segment_managerIcNS0_15rbtree_best_fitINS0_12mutex_familyESA_Lj0EEENS0_10iset_indexEEEE10deallocateERKNS9_ISB_EEj @479
    _ZN5boost12interprocess9allocatorINS_22interprocess_container17containers_detail11rbtree_nodeISt4pairIKi16ShPendingCommandENS0_10offset_ptrIvEEEENS0_15segment_managerIcNS0_15rbtree_best_fitINS0_12mutex_familyESA_Lj0EEENS0_10iset_indexEEEE12allocate_oneEv @480
    _ZN5boost12interprocess9allocatorINS_22interprocess_container17containers_detail11rbtree_nodeISt4pairIKi16ShPendingCommandENS0_10offset_ptrIvEEEENS0_15segment_managerIcNS0_15rbtree_best_fitINS0_12mutex_familyESA_Lj0EEENS0_10iset_indexEEEE14deallocate_oneERKNS9_ISB_EE @481
    _ZN5boost12interprocess9allocatorINS_22interprocess_container17containers_detail11rbtree_nodeISt4pairIKi16ShPendingCommandENS0_10offset_ptrIvEEEENS0_15segment_managerIcNS0_15rbtree_best_fitINS0_12mutex_familyESA_Lj0EEENS0_10iset_indexEEEE15deallocate_manyENS0_6detail31transform_multiallocation_chainINSJ_42basic_multiallocation_cached_counted_slistINSJ_34basic_multiallocation_cached_slistISA_EEEESB_EE @482
    _ZN5boost12interprocess9allocatorINS_22interprocess_container17containers_detail11rbtree_nodeISt4pairIKi16ShPendingCommandENS0_10offset_ptrIvEEEENS0_15segment_managerIcNS0_15rbtree_best_fitINS0_12mutex_familyESA_Lj0EEENS0_10iset_indexEEEE21deallocate_individualENS0_6detail31transform_multiallocation_chainINSJ_42basic_multiallocation_cached_counted_slistINSJ_34basic_multiallocation_cached_slistISA_EEEESB_EE @483
    _ZN5boost12interprocess9allocatorINS_22interprocess_container17containers_detail11rbtree_nodeISt4pairIKi16ShPendingCommandENS0_10offset_ptrIvEEEENS0_15segment_managerIcNS0_15rbtree_best_fitINS0_12mutex_familyESA_Lj0EEENS0_10iset_indexEEEE8allocateEjNS9_IKvEE @484
    _ZN5boost12interprocess9allocatorINS_22interprocess_container17containers_detail11rbtree_nodeISt4pairIKi6ShUnitENS0_10offset_ptrIvEEEENS0_15segment_managerIcNS0_15rbtree_best_fitINS0_12mutex_familyESA_Lj0EEENS0_10iset_indexEEEE15deallocate_manyENS0_6detail31transform_multiallocation_chainINSJ_42basic_multiallocation_cached_counted_slistINSJ_34basic_multiallocation_cached_slistISA_EEEESB_EE @485
    _ZN5boost12interprocess9allocatorINS_22interprocess_container17containers_detail11rbtree_nodeISt4pairIKi6ShUnitENS0_10offset_ptrIvEEEENS0_15segment_managerIcNS0_15rbtree_best_fitINS0_12mutex_familyESA_Lj0EEENS0_10iset_indexEEEE21deallocate_individualENS0_6detail31transform_multiallocation_chainINSJ_42basic_multiallocation_cached_counted_slistINSJ_34basic_multiallocation_cached_slistISA_EEEESB_EE @486
    _ZN5boost12interprocess9allocatorIfNS0_15segment_managerIcNS0_15rbtree_best_fitINS0_12mutex_familyENS0_10offset_ptrIvEELj0EEENS0_10iset_indexEEEE10deallocateERKNS5_IfEEj @487
    _ZN5boost12interprocess9allocatorIfNS0_15segment_managerIcNS0_15rbtree_best_fitINS0_12mutex_familyENS0_10offset_ptrIvEELj0EEENS0_10iset_indexEEEE18allocation_commandEijjRjRKNS5_IfEE @488
    _ZN5boost12interprocess9allocatorIfNS0_15segment_managerIcNS0_15rbtree_best_fitINS0_12mutex_familyENS0_10offset_ptrIvEELj0EEENS0_10iset_indexEEEEC1EPS9_ @489
    _ZN5boost12interprocess9allocatorIfNS0_15segment_managerIcNS0_15rbtree_best_fitINS0_12mutex_familyENS0_10offset_ptrIvEELj0EEENS0_10iset_indexEEEEC2ERKSA_ @490
    _ZN5boost12interprocess9allocatorIiNS0_15segment_managerIcNS0_15rbtree_best_fitINS0_12mutex_familyENS0_10offset_ptrIvEELj0EEENS0_10iset_indexEEEE10deallocateERKNS5_IiEEj @491
    _ZN5boost12interprocess9bad_allocC1Ev @492
    _ZN5boost12interprocess9bad_allocD0Ev @493
    _ZN5boost12interprocess9bad_allocD1Ev @494
    _ZN5boost12interprocesseqINS_9intrusive19compact_rbtree_nodeINS0_10offset_ptrIvEEEEKS6_EEbRKNS4_IT_EERKNS4_IT0_EE @495
    _ZN5boost12interprocesseqINS_9intrusive19compact_rbtree_nodeINS0_10offset_ptrIvEEEES6_EEbRKNS4_IT_EERKNS4_IT0_EE @496
    _ZN5boost12interprocesseqIffEEbRKNS0_10offset_ptrIT_EERKNS2_IT0_EE @497
    _ZN5boost12interprocesseqIvvEEbRKNS0_10offset_ptrIT_EERKNS2_IT0_EE @498
    _ZN5boost12interprocessltERKNS0_15rbtree_best_fitINS0_12mutex_familyENS0_10offset_ptrIvEELj0EE10block_ctrlES8_ @499
    _ZN5boost12interprocessneIKNS_9intrusive19compact_rbtree_nodeINS0_10offset_ptrIvEEEES6_EEbRKNS4_IT_EERKNS4_IT0_EE @500
    _ZN5boost12interprocessneINS_9intrusive19compact_rbtree_nodeINS0_10offset_ptrIvEEEEKS6_EEbRKNS4_IT_EERKNS4_IT0_EE @501
    _ZN5boost12interprocessneINS_9intrusive19compact_rbtree_nodeINS0_10offset_ptrIvEEEES6_EEbRKNS4_IT_EERKNS4_IT0_EE @502
    _ZN5boost13intrusive_ptrINS_6detail16thread_data_baseEED1Ev @503
    _ZN5boost15get_system_timeEv @504
    _ZN5boost15throw_exceptionINS_9gregorian16bad_day_of_monthEEEvRKT_ @505
    _ZN5boost15throw_exceptionINS_9gregorian8bad_yearEEEvRKT_ @506
    _ZN5boost15throw_exceptionINS_9gregorian9bad_monthEEEvRKT_ @507
    _ZN5boost15throw_exceptionISt13runtime_errorEEvRKT_ @508
    _ZN5boost16exception_detail10clone_baseC2ERKS1_ @509
    _ZN5boost16exception_detail10clone_baseC2Ev @510
    _ZN5boost16exception_detail10clone_baseD0Ev @511
    _ZN5boost16exception_detail10clone_baseD1Ev @512
    _ZN5boost16exception_detail10clone_baseD2Ev @513
    _ZN5boost16exception_detail10clone_implINS0_19error_info_injectorINS_9gregorian16bad_day_of_monthEEEEC1ERKS5_ @514
    _ZN5boost16exception_detail10clone_implINS0_19error_info_injectorINS_9gregorian16bad_day_of_monthEEEEC1ERKS6_ @515
    _ZN5boost16exception_detail10clone_implINS0_19error_info_injectorINS_9gregorian16bad_day_of_monthEEEED0Ev @516
    _ZN5boost16exception_detail10clone_implINS0_19error_info_injectorINS_9gregorian16bad_day_of_monthEEEED1Ev @517
    _ZN5boost16exception_detail10clone_implINS0_19error_info_injectorINS_9gregorian8bad_yearEEEEC1ERKS5_ @518
    _ZN5boost16exception_detail10clone_implINS0_19error_info_injectorINS_9gregorian8bad_yearEEEEC1ERKS6_ @519
    _ZN5boost16exception_detail10clone_implINS0_19error_info_injectorINS_9gregorian8bad_yearEEEED0Ev @520
    _ZN5boost16exception_detail10clone_implINS0_19error_info_injectorINS_9gregorian8bad_yearEEEED1Ev @521
    _ZN5boost16exception_detail10clone_implINS0_19error_info_injectorINS_9gregorian9bad_monthEEEEC1ERKS5_ @522
    _ZN5boost16exception_detail10clone_implINS0_19error_info_injectorINS_9gregorian9bad_monthEEEEC1ERKS6_ @523
    _ZN5boost16exception_detail10clone_implINS0_19error_info_injectorINS_9gregorian9bad_monthEEEED0Ev @524
    _ZN5boost16exception_detail10clone_implINS0_19error_info_injectorINS_9gregorian9bad_monthEEEED1Ev @525
    _ZN5boost16exception_detail10clone_implINS0_19error_info_injectorISt13runtime_errorEEEC1ERKS4_ @526
    _ZN5boost16exception_detail10clone_implINS0_19error_info_injectorISt13runtime_errorEEEC1ERKS5_ @527
    _ZN5boost16exception_detail10clone_implINS0_19error_info_injectorISt13runtime_errorEEED0Ev @528
    _ZN5boost16exception_detail10clone_implINS0_19error_info_injectorISt13runtime_errorEEED1Ev @529
    _ZN5boost16exception_detail12refcount_ptrINS0_20error_info_containerEE5adoptEPS2_ @530
    _ZN5boost16exception_detail12refcount_ptrINS0_20error_info_containerEE7add_refEv @531
    _ZN5boost16exception_detail12refcount_ptrINS0_20error_info_containerEE7releaseEv @532
    _ZN5boost16exception_detail12refcount_ptrINS0_20error_info_containerEEC1ERKS3_ @533
    _ZN5boost16exception_detail12refcount_ptrINS0_20error_info_containerEEC1Ev @534
    _ZN5boost16exception_detail12refcount_ptrINS0_20error_info_containerEED1Ev @535
    _ZN5boost16exception_detail12refcount_ptrINS0_20error_info_containerEEaSERKS3_ @536
    _ZN5boost16exception_detail19error_info_injectorINS_9gregorian16bad_day_of_monthEEC1ERKS3_ @537
    _ZN5boost16exception_detail19error_info_injectorINS_9gregorian16bad_day_of_monthEEC2ERKS4_ @538
    _ZN5boost16exception_detail19error_info_injectorINS_9gregorian16bad_day_of_monthEED0Ev @539
    _ZN5boost16exception_detail19error_info_injectorINS_9gregorian16bad_day_of_monthEED1Ev @540
    _ZN5boost16exception_detail19error_info_injectorINS_9gregorian16bad_day_of_monthEED2Ev @541
    _ZN5boost16exception_detail19error_info_injectorINS_9gregorian8bad_yearEEC1ERKS3_ @542
    _ZN5boost16exception_detail19error_info_injectorINS_9gregorian8bad_yearEEC2ERKS4_ @543
    _ZN5boost16exception_detail19error_info_injectorINS_9gregorian8bad_yearEED0Ev @544
    _ZN5boost16exception_detail19error_info_injectorINS_9gregorian8bad_yearEED1Ev @545
    _ZN5boost16exception_detail19error_info_injectorINS_9gregorian8bad_yearEED2Ev @546
    _ZN5boost16exception_detail19error_info_injectorINS_9gregorian9bad_monthEEC1ERKS3_ @547
    _ZN5boost16exception_detail19error_info_injectorINS_9gregorian9bad_monthEEC2ERKS4_ @548
    _ZN5boost16exception_detail19error_info_injectorINS_9gregorian9bad_monthEED0Ev @549
    _ZN5boost16exception_detail19error_info_injectorINS_9gregorian9bad_monthEED1Ev @550
    _ZN5boost16exception_detail19error_info_injectorINS_9gregorian9bad_monthEED2Ev @551
    _ZN5boost16exception_detail19error_info_injectorISt13runtime_errorEC1ERKS2_ @552
    _ZN5boost16exception_detail19error_info_injectorISt13runtime_errorEC2ERKS3_ @553
    _ZN5boost16exception_detail19error_info_injectorISt13runtime_errorED0Ev @554
    _ZN5boost16exception_detail19error_info_injectorISt13runtime_errorED1Ev @555
    _ZN5boost16exception_detail19error_info_injectorISt13runtime_errorED2Ev @556
    _ZN5boost16exception_detail20copy_boost_exceptionEPNS_9exceptionEPKS1_ @557
    _ZN5boost16thread_exceptionC1Ei @558
    _ZN5boost16thread_exceptionC1Ev @559
    _ZN5boost16thread_exceptionC2Ei @560
    _ZN5boost16thread_exceptionC2Ev @561
    _ZN5boost16thread_exceptionD0Ev @562
    _ZN5boost16thread_exceptionD1Ev @563
    _ZN5boost16thread_exceptionD2Ev @564
    _ZN5boost17enable_error_infoINS_9gregorian16bad_day_of_monthEEENS_16exception_detail29enable_error_info_return_typeIT_E4typeERKS5_ @565
    _ZN5boost17enable_error_infoINS_9gregorian8bad_yearEEENS_16exception_detail29enable_error_info_return_typeIT_E4typeERKS5_ @566
    _ZN5boost17enable_error_infoINS_9gregorian9bad_monthEEENS_16exception_detail29enable_error_info_return_typeIT_E4typeERKS5_ @567
    _ZN5boost17enable_error_infoISt13runtime_errorEENS_16exception_detail29enable_error_info_return_typeIT_E4typeERKS4_ @568
    _ZN5boost19equality_comparableINS_10posix_time13time_durationES2_NS_6detail10empty_baseIS2_EENS3_7false_tEEC2Ev @569
    _ZN5boost19equality_comparableINS_10posix_time5ptimeES2_NS_6detail10empty_baseIS2_EENS3_7false_tEEC2Ev @570
    _ZN5boost19equality_comparableINS_9gregorian4dateES2_NS_6detail10empty_baseIS2_EENS3_7false_tEEC2Ev @571
    _ZN5boost20equality_comparable1INS_10posix_time13time_durationENS_6detail10empty_baseIS2_EEEC2Ev @572
    _ZN5boost20equality_comparable1INS_10posix_time5ptimeENS_6detail10empty_baseIS2_EEEC2Ev @573
    _ZN5boost20equality_comparable1INS_9gregorian4dateENS_6detail10empty_baseIS2_EEEC2Ev @574
    _ZN5boost20less_than_comparableINS_10posix_time13time_durationENS_19equality_comparableIS2_S2_NS_6detail10empty_baseIS2_EENS4_7false_tEEES6_NS4_6true_tEEC2Ev @575
    _ZN5boost20less_than_comparableINS_10posix_time5ptimeENS_19equality_comparableIS2_S2_NS_6detail10empty_baseIS2_EENS4_7false_tEEES6_NS4_6true_tEEC2Ev @576
    _ZN5boost20less_than_comparableINS_9gregorian4dateENS_19equality_comparableIS2_S2_NS_6detail10empty_baseIS2_EENS4_7false_tEEES6_NS4_6true_tEEC2Ev @577
    _ZN5boost21less_than_comparable1INS_10posix_time13time_durationENS_19equality_comparableIS2_S2_NS_6detail10empty_baseIS2_EENS4_7false_tEEEEC2Ev @578
    _ZN5boost21less_than_comparable1INS_10posix_time5ptimeENS_19equality_comparableIS2_S2_NS_6detail10empty_baseIS2_EENS4_7false_tEEEEC2Ev @579
    _ZN5boost21less_than_comparable1INS_9gregorian4dateENS_19equality_comparableIS2_S2_NS_6detail10empty_baseIS2_EENS4_7false_tEEEEC2Ev @580
    _ZN5boost21thread_resource_errorC1Ei @581
    _ZN5boost21thread_resource_errorC1Ev @582
    _ZN5boost21thread_resource_errorC2Ei @583
    _ZN5boost21thread_resource_errorC2Ev @584
    _ZN5boost21thread_resource_errorD0Ev @585
    _ZN5boost21thread_resource_errorD1Ev @586
    _ZN5boost21thread_resource_errorD2Ev @587
    _ZN5boost22interprocess_container17containers_detail10value_initI16ShPendingCommandEC1Ev @588
    _ZN5boost22interprocess_container17containers_detail11get_pointerINS_12interprocess10offset_ptrI6PP_PosEEEENS1_14smart_ptr_typeIT_E7pointerERKS8_ @589
    _ZN5boost22interprocess_container17containers_detail11get_pointerINS_12interprocess10offset_ptrI9ShCommandEEEENS1_14smart_ptr_typeIT_E7pointerERKS8_ @590
    _ZN5boost22interprocess_container17containers_detail11get_pointerINS_12interprocess10offset_ptrINS1_11rbtree_nodeISt4pairIKi16ShPendingCommandENS4_IvEEEEEEEENS1_14smart_ptr_typeIT_E7pointerERKSE_ @591
    _ZN5boost22interprocess_container17containers_detail11get_pointerINS_12interprocess10offset_ptrINS1_11rbtree_nodeISt4pairIKi6ShUnitENS4_IvEEEEEEEENS1_14smart_ptr_typeIT_E7pointerERKSE_ @592
    _ZN5boost22interprocess_container17containers_detail11get_pointerINS_12interprocess10offset_ptrIfEEEENS1_14smart_ptr_typeIT_E7pointerERKS7_ @593
    _ZN5boost22interprocess_container17containers_detail11get_pointerINS_12interprocess10offset_ptrIiEEEENS1_14smart_ptr_typeIT_E7pointerERKS7_ @594
    _ZN5boost22interprocess_container17containers_detail11rbtree_nodeISt4pairIKi16ShPendingCommandENS_12interprocess10offset_ptrIvEEE8get_dataEv @595
    _ZN5boost22interprocess_container17containers_detail11rbtree_nodeISt4pairIKi16ShPendingCommandENS_12interprocess10offset_ptrIvEEEC1IS6_EERKT_ @596
    _ZN5boost22interprocess_container17containers_detail11rbtree_nodeISt4pairIKi16ShPendingCommandENS_12interprocess10offset_ptrIvEEED1Ev @597
    _ZN5boost22interprocess_container17containers_detail11rbtree_nodeISt4pairIKi6ShUnitENS_12interprocess10offset_ptrIvEEE8get_dataEv @598
    _ZN5boost22interprocess_container17containers_detail11rbtree_nodeISt4pairIKi6ShUnitENS_12interprocess10offset_ptrIvEEED1Ev @599
    _ZN5boost22interprocess_container17containers_detail12node_compareINS1_18value_compare_implIiSt4pairIKi16ShPendingCommandESt4lessIiENS1_9select1stIS7_EEEENS1_11rbtree_nodeIS7_NS_12interprocess10offset_ptrIvEEEEE10value_compEv @600
    _ZN5boost22interprocess_container17containers_detail12node_compareINS1_18value_compare_implIiSt4pairIKi6ShUnitESt4lessIiENS1_9select1stIS7_EEEENS1_11rbtree_nodeIS7_NS_12interprocess10offset_ptrIvEEEEE10value_compEv @601
    _ZN5boost22interprocess_container17containers_detail14smart_ptr_typeINS_12interprocess10offset_ptrI6PP_PosEEE3getERKS6_ @602
    _ZN5boost22interprocess_container17containers_detail14smart_ptr_typeINS_12interprocess10offset_ptrI9ShCommandEEE3getERKS6_ @603
    _ZN5boost22interprocess_container17containers_detail14smart_ptr_typeINS_12interprocess10offset_ptrINS1_11rbtree_nodeISt4pairIKi16ShPendingCommandENS4_IvEEEEEEE3getERKSC_ @604
    _ZN5boost22interprocess_container17containers_detail14smart_ptr_typeINS_12interprocess10offset_ptrINS1_11rbtree_nodeISt4pairIKi6ShUnitENS4_IvEEEEEEE3getERKSC_ @605
    _ZN5boost22interprocess_container17containers_detail14smart_ptr_typeINS_12interprocess10offset_ptrIfEEE3getERKS5_ @606
    _ZN5boost22interprocess_container17containers_detail14smart_ptr_typeINS_12interprocess10offset_ptrIiEEE3getERKS5_ @607
    _ZN5boost22interprocess_container17containers_detail17get_next_capacityIjEET_S3_S3_S3_ @608
    _ZN5boost22interprocess_container17containers_detail17node_alloc_holderINS_12interprocess9allocatorISt4pairIKi16ShPendingCommandENS3_15segment_managerIcNS3_15rbtree_best_fitINS3_12mutex_familyENS3_10offset_ptrIvEELj0EEENS3_10iset_indexEEEEENS_9intrusive11rbtree_implINSI_6setoptINSI_6detail16base_hook_traitsINS1_11rbtree_nodeIS8_SD_EENSI_18rbtree_node_traitsISD_Lb1EEELNSI_14link_mode_typeE0ENSI_11default_tagELi3EEENS1_12node_compareINS1_18value_compare_implIiS8_St4lessIiENS1_9select1stIS8_EEEESO_EEjLb1EEEEEE10node_allocEv @609
    _ZN5boost22interprocess_container17containers_detail17node_alloc_holderINS_12interprocess9allocatorISt4pairIKi16ShPendingCommandENS3_15segment_managerIcNS3_15rbtree_best_fitINS3_12mutex_familyENS3_10offset_ptrIvEELj0EEENS3_10iset_indexEEEEENS_9intrusive11rbtree_implINSI_6setoptINSI_6detail16base_hook_traitsINS1_11rbtree_nodeIS8_SD_EENSI_18rbtree_node_traitsISD_Lb1EEELNSI_14link_mode_typeE0ENSI_11default_tagELi3EEENS1_12node_compareINS1_18value_compare_implIiS8_St4lessIiENS1_9select1stIS8_EEEESO_EEjLb1EEEEEE11create_nodeIS8_EENSC_ISO_EERKT_ @610
    _ZN5boost22interprocess_container17containers_detail17node_alloc_holderINS_12interprocess9allocatorISt4pairIKi16ShPendingCommandENS3_15segment_managerIcNS3_15rbtree_best_fitINS3_12mutex_familyENS3_10offset_ptrIvEELj0EEENS3_10iset_indexEEEEENS_9intrusive11rbtree_implINSI_6setoptINSI_6detail16base_hook_traitsINS1_11rbtree_nodeIS8_SD_EENSI_18rbtree_node_traitsISD_Lb1EEELNSI_14link_mode_typeE0ENSI_11default_tagELi3EEENS1_12node_compareINS1_18value_compare_implIiS8_St4lessIiENS1_9select1stIS8_EEEESO_EEjLb1EEEEEE12allocate_oneENS1_17integral_constantIjLj2EEE @611
    _ZN5boost22interprocess_container17containers_detail17node_alloc_holderINS_12interprocess9allocatorISt4pairIKi16ShPendingCommandENS3_15segment_managerIcNS3_15rbtree_best_fitINS3_12mutex_familyENS3_10offset_ptrIvEELj0EEENS3_10iset_indexEEEEENS_9intrusive11rbtree_implINSI_6setoptINSI_6detail16base_hook_traitsINS1_11rbtree_nodeIS8_SD_EENSI_18rbtree_node_traitsISD_Lb1EEELNSI_14link_mode_typeE0ENSI_11default_tagELi3EEENS1_12node_compareINS1_18value_compare_implIiS8_St4lessIiENS1_9select1stIS8_EEEESO_EEjLb1EEEEEE12allocate_oneEv @612
    _ZN5boost22interprocess_container17containers_detail17node_alloc_holderINS_12interprocess9allocatorISt4pairIKi16ShPendingCommandENS3_15segment_managerIcNS3_15rbtree_best_fitINS3_12mutex_familyENS3_10offset_ptrIvEELj0EEENS3_10iset_indexEEEEENS_9intrusive11rbtree_implINSI_6setoptINSI_6detail16base_hook_traitsINS1_11rbtree_nodeIS8_SD_EENSI_18rbtree_node_traitsISD_Lb1EEELNSI_14link_mode_typeE0ENSI_11default_tagELi3EEENS1_12node_compareINS1_18value_compare_implIiS8_St4lessIiENS1_9select1stIS8_EEEESO_EEjLb1EEEEEE14members_holderD1Ev @613
    _ZN5boost22interprocess_container17containers_detail17node_alloc_holderINS_12interprocess9allocatorISt4pairIKi16ShPendingCommandENS3_15segment_managerIcNS3_15rbtree_best_fitINS3_12mutex_familyENS3_10offset_ptrIvEELj0EEENS3_10iset_indexEEEEENS_9intrusive11rbtree_implINSI_6setoptINSI_6detail16base_hook_traitsINS1_11rbtree_nodeIS8_SD_EENSI_18rbtree_node_traitsISD_Lb1EEELNSI_14link_mode_typeE0ENSI_11default_tagELi3EEENS1_12node_compareINS1_18value_compare_implIiS8_St4lessIiENS1_9select1stIS8_EEEESO_EEjLb1EEEEEE5clearENS1_17integral_constantIjLj2EEE @614
    _ZN5boost22interprocess_container17containers_detail17node_alloc_holderINS_12interprocess9allocatorISt4pairIKi16ShPendingCommandENS3_15segment_managerIcNS3_15rbtree_best_fitINS3_12mutex_familyENS3_10offset_ptrIvEELj0EEENS3_10iset_indexEEEEENS_9intrusive11rbtree_implINSI_6setoptINSI_6detail16base_hook_traitsINS1_11rbtree_nodeIS8_SD_EENSI_18rbtree_node_traitsISD_Lb1EEELNSI_14link_mode_typeE0ENSI_11default_tagELi3EEENS1_12node_compareINS1_18value_compare_implIiS8_St4lessIiENS1_9select1stIS8_EEEESO_EEjLb1EEEEEE5icontEv @615
    _ZN5boost22interprocess_container17containers_detail17node_alloc_holderINS_12interprocess9allocatorISt4pairIKi16ShPendingCommandENS3_15segment_managerIcNS3_15rbtree_best_fitINS3_12mutex_familyENS3_10offset_ptrIvEELj0EEENS3_10iset_indexEEEEENS_9intrusive11rbtree_implINSI_6setoptINSI_6detail16base_hook_traitsINS1_11rbtree_nodeIS8_SD_EENSI_18rbtree_node_traitsISD_Lb1EEELNSI_14link_mode_typeE0ENSI_11default_tagELi3EEENS1_12node_compareINS1_18value_compare_implIiS8_St4lessIiENS1_9select1stIS8_EEEESO_EEjLb1EEEEEE9constructIS8_EEvRKNSC_ISO_EERKT_ @616
    _ZN5boost22interprocess_container17containers_detail17node_alloc_holderINS_12interprocess9allocatorISt4pairIKi16ShPendingCommandENS3_15segment_managerIcNS3_15rbtree_best_fitINS3_12mutex_familyENS3_10offset_ptrIvEELj0EEENS3_10iset_indexEEEEENS_9intrusive11rbtree_implINSI_6setoptINSI_6detail16base_hook_traitsINS1_11rbtree_nodeIS8_SD_EENSI_18rbtree_node_traitsISD_Lb1EEELNSI_14link_mode_typeE0ENSI_11default_tagELi3EEENS1_12node_compareINS1_18value_compare_implIiS8_St4lessIiENS1_9select1stIS8_EEEESO_EEjLb1EEEEEED2Ev @617
    _ZN5boost22interprocess_container17containers_detail17node_alloc_holderINS_12interprocess9allocatorISt4pairIKi6ShUnitENS3_15segment_managerIcNS3_15rbtree_best_fitINS3_12mutex_familyENS3_10offset_ptrIvEELj0EEENS3_10iset_indexEEEEENS_9intrusive11rbtree_implINSI_6setoptINSI_6detail16base_hook_traitsINS1_11rbtree_nodeIS8_SD_EENSI_18rbtree_node_traitsISD_Lb1EEELNSI_14link_mode_typeE0ENSI_11default_tagELi3EEENS1_12node_compareINS1_18value_compare_implIiS8_St4lessIiENS1_9select1stIS8_EEEESO_EEjLb1EEEEEE10node_allocEv @618
    _ZN5boost22interprocess_container17containers_detail17node_alloc_holderINS_12interprocess9allocatorISt4pairIKi6ShUnitENS3_15segment_managerIcNS3_15rbtree_best_fitINS3_12mutex_familyENS3_10offset_ptrIvEELj0EEENS3_10iset_indexEEEEENS_9intrusive11rbtree_implINSI_6setoptINSI_6detail16base_hook_traitsINS1_11rbtree_nodeIS8_SD_EENSI_18rbtree_node_traitsISD_Lb1EEELNSI_14link_mode_typeE0ENSI_11default_tagELi3EEENS1_12node_compareINS1_18value_compare_implIiS8_St4lessIiENS1_9select1stIS8_EEEESO_EEjLb1EEEEEE14members_holderD1Ev @619
    _ZN5boost22interprocess_container17containers_detail17node_alloc_holderINS_12interprocess9allocatorISt4pairIKi6ShUnitENS3_15segment_managerIcNS3_15rbtree_best_fitINS3_12mutex_familyENS3_10offset_ptrIvEELj0EEENS3_10iset_indexEEEEENS_9intrusive11rbtree_implINSI_6setoptINSI_6detail16base_hook_traitsINS1_11rbtree_nodeIS8_SD_EENSI_18rbtree_node_traitsISD_Lb1EEELNSI_14link_mode_typeE0ENSI_11default_tagELi3EEENS1_12node_compareINS1_18value_compare_implIiS8_St4lessIiENS1_9select1stIS8_EEEESO_EEjLb1EEEEEE5clearENS1_17integral_constantIjLj2EEE @620
    _ZN5boost22interprocess_container17containers_detail17node_alloc_holderINS_12interprocess9allocatorISt4pairIKi6ShUnitENS3_15segment_managerIcNS3_15rbtree_best_fitINS3_12mutex_familyENS3_10offset_ptrIvEELj0EEENS3_10iset_indexEEEEENS_9intrusive11rbtree_implINSI_6setoptINSI_6detail16base_hook_traitsINS1_11rbtree_nodeIS8_SD_EENSI_18rbtree_node_traitsISD_Lb1EEELNSI_14link_mode_typeE0ENSI_11default_tagELi3EEENS1_12node_compareINS1_18value_compare_implIiS8_St4lessIiENS1_9select1stIS8_EEEESO_EEjLb1EEEEEE5icontEv @621
    _ZN5boost22interprocess_container17containers_detail17node_alloc_holderINS_12interprocess9allocatorISt4pairIKi6ShUnitENS3_15segment_managerIcNS3_15rbtree_best_fitINS3_12mutex_familyENS3_10offset_ptrIvEELj0EEENS3_10iset_indexEEEEENS_9intrusive11rbtree_implINSI_6setoptINSI_6detail16base_hook_traitsINS1_11rbtree_nodeIS8_SD_EENSI_18rbtree_node_traitsISD_Lb1EEELNSI_14link_mode_typeE0ENSI_11default_tagELi3EEENS1_12node_compareINS1_18value_compare_implIiS8_St4lessIiENS1_9select1stIS8_EEEESO_EEjLb1EEEEEED2Ev @622
    _ZN5boost22interprocess_container17containers_detail18scoped_deallocatorINS_12interprocess9allocatorINS1_11rbtree_nodeISt4pairIKi16ShPendingCommandENS3_10offset_ptrIvEEEENS3_15segment_managerIcNS3_15rbtree_best_fitINS3_12mutex_familyESB_Lj0EEENS3_10iset_indexEEEEEE15priv_deallocateENS1_17integral_constantIjLj2EEE @623
    _ZN5boost22interprocess_container17containers_detail18scoped_deallocatorINS_12interprocess9allocatorINS1_11rbtree_nodeISt4pairIKi16ShPendingCommandENS3_10offset_ptrIvEEEENS3_15segment_managerIcNS3_15rbtree_best_fitINS3_12mutex_familyESB_Lj0EEENS3_10iset_indexEEEEEE7releaseEv @624
    _ZN5boost22interprocess_container17containers_detail18scoped_deallocatorINS_12interprocess9allocatorINS1_11rbtree_nodeISt4pairIKi16ShPendingCommandENS3_10offset_ptrIvEEEENS3_15segment_managerIcNS3_15rbtree_best_fitINS3_12mutex_familyESB_Lj0EEENS3_10iset_indexEEEEEEC1ENSA_ISC_EERSJ_ @625
    _ZN5boost22interprocess_container17containers_detail18scoped_deallocatorINS_12interprocess9allocatorINS1_11rbtree_nodeISt4pairIKi16ShPendingCommandENS3_10offset_ptrIvEEEENS3_15segment_managerIcNS3_15rbtree_best_fitINS3_12mutex_familyESB_Lj0EEENS3_10iset_indexEEEEEED1Ev @626
    _ZN5boost22interprocess_container17containers_detail18value_compare_implIiSt4pairIKi16ShPendingCommandESt4lessIiENS1_9select1stIS6_EEE8key_compEv @627
    _ZN5boost22interprocess_container17containers_detail19vector_alloc_holderINS_12interprocess9allocatorI6PP_PosNS3_15segment_managerIcNS3_15rbtree_best_fitINS3_12mutex_familyENS3_10offset_ptrIvEELj0EEENS3_10iset_indexEEEEEE15prot_deallocateEv @628
    _ZN5boost22interprocess_container17containers_detail19vector_alloc_holderINS_12interprocess9allocatorI6PP_PosNS3_15segment_managerIcNS3_15rbtree_best_fitINS3_12mutex_familyENS3_10offset_ptrIvEELj0EEENS3_10iset_indexEEEEEE16prot_destroy_allEv @629
    _ZN5boost22interprocess_container17containers_detail19vector_alloc_holderINS_12interprocess9allocatorI6PP_PosNS3_15segment_managerIcNS3_15rbtree_best_fitINS3_12mutex_familyENS3_10offset_ptrIvEELj0EEENS3_10iset_indexEEEEEE5allocEv @630
    _ZN5boost22interprocess_container17containers_detail19vector_alloc_holderINS_12interprocess9allocatorI6PP_PosNS3_15segment_managerIcNS3_15rbtree_best_fitINS3_12mutex_familyENS3_10offset_ptrIvEELj0EEENS3_10iset_indexEEEEEE9destroy_nEPS5_j @631
    _ZN5boost22interprocess_container17containers_detail19vector_alloc_holderINS_12interprocess9allocatorI6PP_PosNS3_15segment_managerIcNS3_15rbtree_best_fitINS3_12mutex_familyENS3_10offset_ptrIvEELj0EEENS3_10iset_indexEEEEEED2Ev @632
    _ZN5boost22interprocess_container17containers_detail19vector_alloc_holderINS_12interprocess9allocatorI9ShCommandNS3_15segment_managerIcNS3_15rbtree_best_fitINS3_12mutex_familyENS3_10offset_ptrIvEELj0EEENS3_10iset_indexEEEEEE15prot_deallocateEv @633
    _ZN5boost22interprocess_container17containers_detail19vector_alloc_holderINS_12interprocess9allocatorI9ShCommandNS3_15segment_managerIcNS3_15rbtree_best_fitINS3_12mutex_familyENS3_10offset_ptrIvEELj0EEENS3_10iset_indexEEEEEE16prot_destroy_allEv @634
    _ZN5boost22interprocess_container17containers_detail19vector_alloc_holderINS_12interprocess9allocatorI9ShCommandNS3_15segment_managerIcNS3_15rbtree_best_fitINS3_12mutex_familyENS3_10offset_ptrIvEELj0EEENS3_10iset_indexEEEEEE5allocEv @635
    _ZN5boost22interprocess_container17containers_detail19vector_alloc_holderINS_12interprocess9allocatorI9ShCommandNS3_15segment_managerIcNS3_15rbtree_best_fitINS3_12mutex_familyENS3_10offset_ptrIvEELj0EEENS3_10iset_indexEEEEEE9destroy_nEPS5_j @636
    _ZN5boost22interprocess_container17containers_detail19vector_alloc_holderINS_12interprocess9allocatorI9ShCommandNS3_15segment_managerIcNS3_15rbtree_best_fitINS3_12mutex_familyENS3_10offset_ptrIvEELj0EEENS3_10iset_indexEEEEEED2Ev @637
    _ZN5boost22interprocess_container17containers_detail19vector_alloc_holderINS_12interprocess9allocatorIfNS3_15segment_managerIcNS3_15rbtree_best_fitINS3_12mutex_familyENS3_10offset_ptrIvEELj0EEENS3_10iset_indexEEEEEE14members_holderC1ERKSD_ @638
    _ZN5boost22interprocess_container17containers_detail19vector_alloc_holderINS_12interprocess9allocatorIfNS3_15segment_managerIcNS3_15rbtree_best_fitINS3_12mutex_familyENS3_10offset_ptrIvEELj0EEENS3_10iset_indexEEEEEE15prot_deallocateEv @639
    _ZN5boost22interprocess_container17containers_detail19vector_alloc_holderINS_12interprocess9allocatorIfNS3_15segment_managerIcNS3_15rbtree_best_fitINS3_12mutex_familyENS3_10offset_ptrIvEELj0EEENS3_10iset_indexEEEEEE16prot_destroy_allEv @640
    _ZN5boost22interprocess_container17containers_detail19vector_alloc_holderINS_12interprocess9allocatorIfNS3_15segment_managerIcNS3_15rbtree_best_fitINS3_12mutex_familyENS3_10offset_ptrIvEELj0EEENS3_10iset_indexEEEEEE18allocation_commandEijjRjRKNS8_IfEE @641
    _ZN5boost22interprocess_container17containers_detail19vector_alloc_holderINS_12interprocess9allocatorIfNS3_15segment_managerIcNS3_15rbtree_best_fitINS3_12mutex_familyENS3_10offset_ptrIvEELj0EEENS3_10iset_indexEEEEEE18allocation_commandEijjRjRKNS8_IfEENS1_17integral_constantIjLj2EEE @642
    _ZN5boost22interprocess_container17containers_detail19vector_alloc_holderINS_12interprocess9allocatorIfNS3_15segment_managerIcNS3_15rbtree_best_fitINS3_12mutex_familyENS3_10offset_ptrIvEELj0EEENS3_10iset_indexEEEEEE5allocEv @643
    _ZN5boost22interprocess_container17containers_detail19vector_alloc_holderINS_12interprocess9allocatorIfNS3_15segment_managerIcNS3_15rbtree_best_fitINS3_12mutex_familyENS3_10offset_ptrIvEELj0EEENS3_10iset_indexEEEEEE9destroy_nEPfj @644
    _ZN5boost22interprocess_container17containers_detail19vector_alloc_holderINS_12interprocess9allocatorIfNS3_15segment_managerIcNS3_15rbtree_best_fitINS3_12mutex_familyENS3_10offset_ptrIvEELj0EEENS3_10iset_indexEEEEEEC2ERKSD_ @645
    _ZN5boost22interprocess_container17containers_detail19vector_alloc_holderINS_12interprocess9allocatorIfNS3_15segment_managerIcNS3_15rbtree_best_fitINS3_12mutex_familyENS3_10offset_ptrIvEELj0EEENS3_10iset_indexEEEEEED2Ev @646
    _ZN5boost22interprocess_container17containers_detail19vector_alloc_holderINS_12interprocess9allocatorIiNS3_15segment_managerIcNS3_15rbtree_best_fitINS3_12mutex_familyENS3_10offset_ptrIvEELj0EEENS3_10iset_indexEEEEEE15prot_deallocateEv @647
    _ZN5boost22interprocess_container17containers_detail19vector_alloc_holderINS_12interprocess9allocatorIiNS3_15segment_managerIcNS3_15rbtree_best_fitINS3_12mutex_familyENS3_10offset_ptrIvEELj0EEENS3_10iset_indexEEEEEE16prot_destroy_allEv @648
    _ZN5boost22interprocess_container17containers_detail19vector_alloc_holderINS_12interprocess9allocatorIiNS3_15segment_managerIcNS3_15rbtree_best_fitINS3_12mutex_familyENS3_10offset_ptrIvEELj0EEENS3_10iset_indexEEEEEE5allocEv @649
    _ZN5boost22interprocess_container17containers_detail19vector_alloc_holderINS_12interprocess9allocatorIiNS3_15segment_managerIcNS3_15rbtree_best_fitINS3_12mutex_familyENS3_10offset_ptrIvEELj0EEENS3_10iset_indexEEEEEE9destroy_nEPij @650
    _ZN5boost22interprocess_container17containers_detail19vector_alloc_holderINS_12interprocess9allocatorIiNS3_15segment_managerIcNS3_15rbtree_best_fitINS3_12mutex_familyENS3_10offset_ptrIvEELj0EEENS3_10iset_indexEEEEEED2Ev @651
    _ZN5boost22interprocess_container17containers_detail24null_scoped_destructor_nINS_12interprocess9allocatorIfNS3_15segment_managerIcNS3_15rbtree_best_fitINS3_12mutex_familyENS3_10offset_ptrIvEELj0EEENS3_10iset_indexEEEEEE7releaseEv @652
    _ZN5boost22interprocess_container17containers_detail24null_scoped_destructor_nINS_12interprocess9allocatorIfNS3_15segment_managerIcNS3_15rbtree_best_fitINS3_12mutex_familyENS3_10offset_ptrIvEELj0EEENS3_10iset_indexEEEEEEC1ENS8_IfEEj @653
    _ZN5boost22interprocess_container17containers_detail29null_scoped_array_deallocatorINS_12interprocess9allocatorIfNS3_15segment_managerIcNS3_15rbtree_best_fitINS3_12mutex_familyENS3_10offset_ptrIvEELj0EEENS3_10iset_indexEEEEEE7releaseEv @654
    _ZN5boost22interprocess_container17containers_detail29null_scoped_array_deallocatorINS_12interprocess9allocatorIfNS3_15segment_managerIcNS3_15rbtree_best_fitINS3_12mutex_familyENS3_10offset_ptrIvEELj0EEENS3_10iset_indexEEEEEEC1ENS8_IfEERSD_j @655
    _ZN5boost22interprocess_container17containers_detail37allocator_destroyer_and_chain_builderINS_12interprocess9allocatorINS1_11rbtree_nodeISt4pairIKi16ShPendingCommandENS3_10offset_ptrIvEEEENS3_15segment_managerIcNS3_15rbtree_best_fitINS3_12mutex_familyESB_Lj0EEENS3_10iset_indexEEEEEEC1ERSJ_RNS3_6detail31transform_multiallocation_chainINSM_42basic_multiallocation_cached_counted_slistINSM_34basic_multiallocation_cached_slistISB_EEEESC_EE @656
    _ZN5boost22interprocess_container17containers_detail37allocator_destroyer_and_chain_builderINS_12interprocess9allocatorINS1_11rbtree_nodeISt4pairIKi16ShPendingCommandENS3_10offset_ptrIvEEEENS3_15segment_managerIcNS3_15rbtree_best_fitINS3_12mutex_familyESB_Lj0EEENS3_10iset_indexEEEEEEclERKNSA_ISC_EE @657
    _ZN5boost22interprocess_container17containers_detail37allocator_destroyer_and_chain_builderINS_12interprocess9allocatorINS1_11rbtree_nodeISt4pairIKi6ShUnitENS3_10offset_ptrIvEEEENS3_15segment_managerIcNS3_15rbtree_best_fitINS3_12mutex_familyESB_Lj0EEENS3_10iset_indexEEEEEEC1ERSJ_RNS3_6detail31transform_multiallocation_chainINSM_42basic_multiallocation_cached_counted_slistINSM_34basic_multiallocation_cached_slistISB_EEEESC_EE @658
    _ZN5boost22interprocess_container17containers_detail37allocator_destroyer_and_chain_builderINS_12interprocess9allocatorINS1_11rbtree_nodeISt4pairIKi6ShUnitENS3_10offset_ptrIvEEEENS3_15segment_managerIcNS3_15rbtree_best_fitINS3_12mutex_familyESB_Lj0EEENS3_10iset_indexEEEEEEclERKNSA_ISC_EE @659
    _ZN5boost22interprocess_container17containers_detail4pairIKi16ShPendingCommandEC1IS3_S4_EERKSt4pairIT_T0_E @660
    _ZN5boost22interprocess_container17containers_detail6rbtreeIiSt4pairIKi16ShPendingCommandENS1_9select1stIS6_EESt4lessIiENS_12interprocess9allocatorIS6_NSB_15segment_managerIcNSB_15rbtree_best_fitINSB_12mutex_familyENSB_10offset_ptrIvEELj0EEENSB_10iset_indexEEEEEE11lower_boundERS4_ @661
    _ZN5boost22interprocess_container17containers_detail6rbtreeIiSt4pairIKi16ShPendingCommandENS1_9select1stIS6_EESt4lessIiENS_12interprocess9allocatorIS6_NSB_15segment_managerIcNSB_15rbtree_best_fitINSB_12mutex_familyENSB_10offset_ptrIvEELj0EEENSB_10iset_indexEEEEEE13insert_uniqueENSM_14const_iteratorERKS6_ @662
    _ZN5boost22interprocess_container17containers_detail6rbtreeIiSt4pairIKi16ShPendingCommandENS1_9select1stIS6_EESt4lessIiENS_12interprocess9allocatorIS6_NSB_15segment_managerIcNSB_15rbtree_best_fitINSB_12mutex_familyENSB_10offset_ptrIvEELj0EEENSB_10iset_indexEEEEEE14const_iterator3getEv @663
    _ZN5boost22interprocess_container17containers_detail6rbtreeIiSt4pairIKi16ShPendingCommandENS1_9select1stIS6_EESt4lessIiENS_12interprocess9allocatorIS6_NSB_15segment_managerIcNSB_15rbtree_best_fitINSB_12mutex_familyENSB_10offset_ptrIvEELj0EEENSB_10iset_indexEEEEEE14const_iteratorC1ERKSN_ @664
    _ZN5boost22interprocess_container17containers_detail6rbtreeIiSt4pairIKi16ShPendingCommandENS1_9select1stIS6_EESt4lessIiENS_12interprocess9allocatorIS6_NSB_15segment_managerIcNSB_15rbtree_best_fitINSB_12mutex_familyENSB_10offset_ptrIvEELj0EEENSB_10iset_indexEEEEEE14const_iteratorC2ENS_9intrusive13tree_iteratorINSO_11rbtree_implINSO_6setoptINSO_6detail16base_hook_traitsINS1_11rbtree_nodeIS6_SH_EENSO_18rbtree_node_traitsISH_Lb1EEELNSO_14link_mode_typeE0ENSO_11default_tagELi3EEENS1_12node_compareINS1_18value_compare_implIiS6_SA_S8_EESV_EEjLb1EEEEELb0EEE @665
    _ZN5boost22interprocess_container17containers_detail6rbtreeIiSt4pairIKi16ShPendingCommandENS1_9select1stIS6_EESt4lessIiENS_12interprocess9allocatorIS6_NSB_15segment_managerIcNSB_15rbtree_best_fitINSB_12mutex_familyENSB_10offset_ptrIvEELj0EEENSB_10iset_indexEEEEEE14const_iteratorC2ERKSN_ @666
    _ZN5boost22interprocess_container17containers_detail6rbtreeIiSt4pairIKi16ShPendingCommandENS1_9select1stIS6_EESt4lessIiENS_12interprocess9allocatorIS6_NSB_15segment_managerIcNSB_15rbtree_best_fitINSB_12mutex_familyENSB_10offset_ptrIvEELj0EEENSB_10iset_indexEEEEEE14const_iteratoraSERKSN_ @667
    _ZN5boost22interprocess_container17containers_detail6rbtreeIiSt4pairIKi16ShPendingCommandENS1_9select1stIS6_EESt4lessIiENS_12interprocess9allocatorIS6_NSB_15segment_managerIcNSB_15rbtree_best_fitINSB_12mutex_familyENSB_10offset_ptrIvEELj0EEENSB_10iset_indexEEEEEE16key_node_compareINS1_18value_compare_implIiS6_SA_S8_EEEC1ESP_ @668
    _ZN5boost22interprocess_container17containers_detail6rbtreeIiSt4pairIKi16ShPendingCommandENS1_9select1stIS6_EESt4lessIiENS_12interprocess9allocatorIS6_NSB_15segment_managerIcNSB_15rbtree_best_fitINSB_12mutex_familyENSB_10offset_ptrIvEELj0EEENSB_10iset_indexEEEEEE19insert_unique_checkENSM_14const_iteratorERS4_RNS_9intrusive6detail15tree_algorithmsINSP_18rbtree_node_traitsISH_Lb1EEEE18insert_commit_dataE @669
    _ZN5boost22interprocess_container17containers_detail6rbtreeIiSt4pairIKi16ShPendingCommandENS1_9select1stIS6_EESt4lessIiENS_12interprocess9allocatorIS6_NSB_15segment_managerIcNSB_15rbtree_best_fitINSB_12mutex_familyENSB_10offset_ptrIvEELj0EEENSB_10iset_indexEEEEEE20insert_unique_commitERKS6_RNS_9intrusive6detail15tree_algorithmsINSP_18rbtree_node_traitsISH_Lb1EEEE18insert_commit_dataE @670
    _ZN5boost22interprocess_container17containers_detail6rbtreeIiSt4pairIKi16ShPendingCommandENS1_9select1stIS6_EESt4lessIiENS_12interprocess9allocatorIS6_NSB_15segment_managerIcNSB_15rbtree_best_fitINSB_12mutex_familyENSB_10offset_ptrIvEELj0EEENSB_10iset_indexEEEEEE3endEv @671
    _ZN5boost22interprocess_container17containers_detail6rbtreeIiSt4pairIKi16ShPendingCommandENS1_9select1stIS6_EESt4lessIiENS_12interprocess9allocatorIS6_NSB_15segment_managerIcNSB_15rbtree_best_fitINSB_12mutex_familyENSB_10offset_ptrIvEELj0EEENSB_10iset_indexEEEEEE8iteratorC1ENS_9intrusive13tree_iteratorINSO_11rbtree_implINSO_6setoptINSO_6detail16base_hook_traitsINS1_11rbtree_nodeIS6_SH_EENSO_18rbtree_node_traitsISH_Lb1EEELNSO_14link_mode_typeE0ENSO_11default_tagELi3EEENS1_12node_compareINS1_18value_compare_implIiS6_SA_S8_EESV_EEjLb1EEEEELb0EEE @672
    _ZN5boost22interprocess_container17containers_detail6rbtreeIiSt4pairIKi16ShPendingCommandENS1_9select1stIS6_EESt4lessIiENS_12interprocess9allocatorIS6_NSB_15segment_managerIcNSB_15rbtree_best_fitINSB_12mutex_familyENSB_10offset_ptrIvEELj0EEENSB_10iset_indexEEEEEE8iteratorC1ERKSN_ @673
    _ZN5boost22interprocess_container17containers_detail6rbtreeIiSt4pairIKi16ShPendingCommandENS1_9select1stIS6_EESt4lessIiENS_12interprocess9allocatorIS6_NSB_15segment_managerIcNSB_15rbtree_best_fitINSB_12mutex_familyENSB_10offset_ptrIvEELj0EEENSB_10iset_indexEEEEEE8iteratoraSERKSN_ @674
    _ZN5boost22interprocess_container17containers_detail6rbtreeIiSt4pairIKi16ShPendingCommandENS1_9select1stIS6_EESt4lessIiENS_12interprocess9allocatorIS6_NSB_15segment_managerIcNSB_15rbtree_best_fitINSB_12mutex_familyENSB_10offset_ptrIvEELj0EEENSB_10iset_indexEEEEEED1Ev @675
    _ZN5boost22interprocess_container17containers_detail6rbtreeIiSt4pairIKi6ShUnitENS1_9select1stIS6_EESt4lessIiENS_12interprocess9allocatorIS6_NSB_15segment_managerIcNSB_15rbtree_best_fitINSB_12mutex_familyENSB_10offset_ptrIvEELj0EEENSB_10iset_indexEEEEEE14const_iteratorC2ENS_9intrusive13tree_iteratorINSO_11rbtree_implINSO_6setoptINSO_6detail16base_hook_traitsINS1_11rbtree_nodeIS6_SH_EENSO_18rbtree_node_traitsISH_Lb1EEELNSO_14link_mode_typeE0ENSO_11default_tagELi3EEENS1_12node_compareINS1_18value_compare_implIiS6_SA_S8_EESV_EEjLb1EEEEELb0EEE @676
    _ZN5boost22interprocess_container17containers_detail6rbtreeIiSt4pairIKi6ShUnitENS1_9select1stIS6_EESt4lessIiENS_12interprocess9allocatorIS6_NSB_15segment_managerIcNSB_15rbtree_best_fitINSB_12mutex_familyENSB_10offset_ptrIvEELj0EEENSB_10iset_indexEEEEEE16key_node_compareINS1_18value_compare_implIiS6_SA_S8_EEEC1ESP_ @677
    _ZN5boost22interprocess_container17containers_detail6rbtreeIiSt4pairIKi6ShUnitENS1_9select1stIS6_EESt4lessIiENS_12interprocess9allocatorIS6_NSB_15segment_managerIcNSB_15rbtree_best_fitINSB_12mutex_familyENSB_10offset_ptrIvEELj0EEENSB_10iset_indexEEEEEE3endEv @678
    _ZN5boost22interprocess_container17containers_detail6rbtreeIiSt4pairIKi6ShUnitENS1_9select1stIS6_EESt4lessIiENS_12interprocess9allocatorIS6_NSB_15segment_managerIcNSB_15rbtree_best_fitINSB_12mutex_familyENSB_10offset_ptrIvEELj0EEENSB_10iset_indexEEEEEE4findERS4_ @679
    _ZN5boost22interprocess_container17containers_detail6rbtreeIiSt4pairIKi6ShUnitENS1_9select1stIS6_EESt4lessIiENS_12interprocess9allocatorIS6_NSB_15segment_managerIcNSB_15rbtree_best_fitINSB_12mutex_familyENSB_10offset_ptrIvEELj0EEENSB_10iset_indexEEEEEE8iteratorC1ENS_9intrusive13tree_iteratorINSO_11rbtree_implINSO_6setoptINSO_6detail16base_hook_traitsINS1_11rbtree_nodeIS6_SH_EENSO_18rbtree_node_traitsISH_Lb1EEELNSO_14link_mode_typeE0ENSO_11default_tagELi3EEENS1_12node_compareINS1_18value_compare_implIiS6_SA_S8_EESV_EEjLb1EEEEELb0EEE @680
    _ZN5boost22interprocess_container17containers_detail6rbtreeIiSt4pairIKi6ShUnitENS1_9select1stIS6_EESt4lessIiENS_12interprocess9allocatorIS6_NSB_15segment_managerIcNSB_15rbtree_best_fitINSB_12mutex_familyENSB_10offset_ptrIvEELj0EEENSB_10iset_indexEEEEEED1Ev @681
    _ZN5boost22interprocess_container17containers_detail9max_valueIjEERKT_S5_S5_ @682
    _ZN5boost22interprocess_container17containers_detail9min_valueIjEERKT_S5_S5_ @683
    _ZN5boost22interprocess_container3mapIi16ShPendingCommandSt4lessIiENS_12interprocess9allocatorISt4pairIKiS2_ENS5_15segment_managerIcNS5_15rbtree_best_fitINS5_12mutex_familyENS5_10offset_ptrIvEELj0EEENS5_10iset_indexEEEEEE11lower_boundERS8_ @684
    _ZN5boost22interprocess_container3mapIi16ShPendingCommandSt4lessIiENS_12interprocess9allocatorISt4pairIKiS2_ENS5_15segment_managerIcNS5_15rbtree_best_fitINS5_12mutex_familyENS5_10offset_ptrIvEELj0EEENS5_10iset_indexEEEEEE3endEv @685
    _ZN5boost22interprocess_container3mapIi16ShPendingCommandSt4lessIiENS_12interprocess9allocatorISt4pairIKiS2_ENS5_15segment_managerIcNS5_15rbtree_best_fitINS5_12mutex_familyENS5_10offset_ptrIvEELj0EEENS5_10iset_indexEEEEEE6insertENS0_17containers_detail6rbtreeIiS9_NSK_9select1stIS9_EES4_SI_E8iteratorERKS9_ @686
    _ZN5boost22interprocess_container3mapIi16ShPendingCommandSt4lessIiENS_12interprocess9allocatorISt4pairIKiS2_ENS5_15segment_managerIcNS5_15rbtree_best_fitINS5_12mutex_familyENS5_10offset_ptrIvEELj0EEENS5_10iset_indexEEEEEED1Ev @687
    _ZN5boost22interprocess_container3mapIi16ShPendingCommandSt4lessIiENS_12interprocess9allocatorISt4pairIKiS2_ENS5_15segment_managerIcNS5_15rbtree_best_fitINS5_12mutex_familyENS5_10offset_ptrIvEELj0EEENS5_10iset_indexEEEEEEixERS8_ @688
    _ZN5boost22interprocess_container3mapIi6ShUnitSt4lessIiENS_12interprocess9allocatorISt4pairIKiS2_ENS5_15segment_managerIcNS5_15rbtree_best_fitINS5_12mutex_familyENS5_10offset_ptrIvEELj0EEENS5_10iset_indexEEEEEE3endEv @689
    _ZN5boost22interprocess_container3mapIi6ShUnitSt4lessIiENS_12interprocess9allocatorISt4pairIKiS2_ENS5_15segment_managerIcNS5_15rbtree_best_fitINS5_12mutex_familyENS5_10offset_ptrIvEELj0EEENS5_10iset_indexEEEEEE4findERS8_ @690
    _ZN5boost22interprocess_container3mapIi6ShUnitSt4lessIiENS_12interprocess9allocatorISt4pairIKiS2_ENS5_15segment_managerIcNS5_15rbtree_best_fitINS5_12mutex_familyENS5_10offset_ptrIvEELj0EEENS5_10iset_indexEEEEEED1Ev @691
    _ZN5boost22interprocess_container6vectorI6PP_PosNS_12interprocess9allocatorIS2_NS3_15segment_managerIcNS3_15rbtree_best_fitINS3_12mutex_familyENS3_10offset_ptrIvEELj0EEENS3_10iset_indexEEEEEE2atEj @692
    _ZN5boost22interprocess_container6vectorI6PP_PosNS_12interprocess9allocatorIS2_NS3_15segment_managerIcNS3_15rbtree_best_fitINS3_12mutex_familyENS3_10offset_ptrIvEELj0EEENS3_10iset_indexEEEEEED1Ev @693
    _ZN5boost22interprocess_container6vectorI9ShCommandNS_12interprocess9allocatorIS2_NS3_15segment_managerIcNS3_15rbtree_best_fitINS3_12mutex_familyENS3_10offset_ptrIvEELj0EEENS3_10iset_indexEEEEEE2atEj @694
    _ZN5boost22interprocess_container6vectorI9ShCommandNS_12interprocess9allocatorIS2_NS3_15segment_managerIcNS3_15rbtree_best_fitINS3_12mutex_familyENS3_10offset_ptrIvEELj0EEENS3_10iset_indexEEEEEED1Ev @695
    _ZN5boost22interprocess_container6vectorIfNS_12interprocess9allocatorIfNS2_15segment_managerIcNS2_15rbtree_best_fitINS2_12mutex_familyENS2_10offset_ptrIvEELj0EEENS2_10iset_indexEEEEEE15priv_assign_auxIN9__gnu_cxx17__normal_iteratorIPKfSt6vectorIfSaIfEEEEEEvT_SN_St20forward_iterator_tag @696
    _ZN5boost22interprocess_container6vectorIfNS_12interprocess9allocatorIfNS2_15segment_managerIcNS2_15rbtree_best_fitINS2_12mutex_familyENS2_10offset_ptrIvEELj0EEENS2_10iset_indexEEEEEE20priv_assign_dispatchIN9__gnu_cxx17__normal_iteratorIPKfSt6vectorIfSaIfEEEEEEvT_SN_NS0_17containers_detail5bool_ILb0EEE @697
    _ZN5boost22interprocess_container6vectorIfNS_12interprocess9allocatorIfNS2_15segment_managerIcNS2_15rbtree_best_fitINS2_12mutex_familyENS2_10offset_ptrIvEELj0EEENS2_10iset_indexEEEEEE2atEj @698
    _ZN5boost22interprocess_container6vectorIfNS_12interprocess9allocatorIfNS2_15segment_managerIcNS2_15rbtree_best_fitINS2_12mutex_familyENS2_10offset_ptrIvEELj0EEENS2_10iset_indexEEEEEE6assignIN9__gnu_cxx17__normal_iteratorIPKfSt6vectorIfSaIfEEEEEEvT_SN_ @699
    _ZN5boost22interprocess_container6vectorIfNS_12interprocess9allocatorIfNS2_15segment_managerIcNS2_15rbtree_best_fitINS2_12mutex_familyENS2_10offset_ptrIvEELj0EEENS2_10iset_indexEEEEEEC1IN9__gnu_cxx17__normal_iteratorIPKfSt6vectorIfSaIfEEEEEET_SN_RKSC_ @700
    _ZN5boost22interprocess_container6vectorIfNS_12interprocess9allocatorIfNS2_15segment_managerIcNS2_15rbtree_best_fitINS2_12mutex_familyENS2_10offset_ptrIvEELj0EEENS2_10iset_indexEEEEEED1Ev @701
    _ZN5boost22interprocess_container6vectorIiNS_12interprocess9allocatorIiNS2_15segment_managerIcNS2_15rbtree_best_fitINS2_12mutex_familyENS2_10offset_ptrIvEELj0EEENS2_10iset_indexEEEEEE2atEj @702
    _ZN5boost22interprocess_container6vectorIiNS_12interprocess9allocatorIiNS2_15segment_managerIcNS2_15rbtree_best_fitINS2_12mutex_familyENS2_10offset_ptrIvEELj0EEENS2_10iset_indexEEEEEED1Ev @703
    _ZN5boost23invalid_thread_argumentC1Ei @704
    _ZN5boost23invalid_thread_argumentC1Ev @705
    _ZN5boost23invalid_thread_argumentC2Ei @706
    _ZN5boost23invalid_thread_argumentC2Ev @707
    _ZN5boost23invalid_thread_argumentD0Ev @708
    _ZN5boost23invalid_thread_argumentD1Ev @709
    _ZN5boost23invalid_thread_argumentD2Ev @710
    _ZN5boost23thread_permission_errorC1Ei @711
    _ZN5boost23thread_permission_errorC1Ev @712
    _ZN5boost23thread_permission_errorC2Ei @713
    _ZN5boost23thread_permission_errorC2Ev @714
    _ZN5boost23thread_permission_errorD0Ev @715
    _ZN5boost23thread_permission_errorD1Ev @716
    _ZN5boost23thread_permission_errorD2Ev @717
    _ZN5boost24enable_current_exceptionINS_16exception_detail19error_info_injectorINS_9gregorian16bad_day_of_monthEEEEENS1_10clone_implIT_EERKS7_ @718
    _ZN5boost24enable_current_exceptionINS_16exception_detail19error_info_injectorINS_9gregorian8bad_yearEEEEENS1_10clone_implIT_EERKS7_ @719
    _ZN5boost24enable_current_exceptionINS_16exception_detail19error_info_injectorINS_9gregorian9bad_monthEEEEENS1_10clone_implIT_EERKS7_ @720
    _ZN5boost24enable_current_exceptionINS_16exception_detail19error_info_injectorISt13runtime_errorEEEENS1_10clone_implIT_EERKS6_ @721
    _ZN5boost25unsupported_thread_optionC1Ei @722
    _ZN5boost25unsupported_thread_optionC1Ev @723
    _ZN5boost25unsupported_thread_optionC2Ei @724
    _ZN5boost25unsupported_thread_optionC2Ev @725
    _ZN5boost25unsupported_thread_optionD0Ev @726
    _ZN5boost25unsupported_thread_optionD1Ev @727
    _ZN5boost25unsupported_thread_optionD2Ev @728
    _ZN5boost2CV17constrained_valueINS0_23simple_exception_policyItLt1400ELt10000ENS_9gregorian8bad_yearEEEE3maxEv @729
    _ZN5boost2CV17constrained_valueINS0_23simple_exception_policyItLt1400ELt10000ENS_9gregorian8bad_yearEEEE3minEv @730
    _ZN5boost2CV17constrained_valueINS0_23simple_exception_policyItLt1400ELt10000ENS_9gregorian8bad_yearEEEE6assignEt @731
    _ZN5boost2CV17constrained_valueINS0_23simple_exception_policyItLt1400ELt10000ENS_9gregorian8bad_yearEEEEC2Et @732
    _ZN5boost2CV17constrained_valueINS0_23simple_exception_policyItLt1ELt12ENS_9gregorian9bad_monthEEEE3maxEv @733
    _ZN5boost2CV17constrained_valueINS0_23simple_exception_policyItLt1ELt12ENS_9gregorian9bad_monthEEEE3minEv @734
    _ZN5boost2CV17constrained_valueINS0_23simple_exception_policyItLt1ELt12ENS_9gregorian9bad_monthEEEE6assignEt @735
    _ZN5boost2CV17constrained_valueINS0_23simple_exception_policyItLt1ELt12ENS_9gregorian9bad_monthEEEEC2Et @736
    _ZN5boost2CV17constrained_valueINS0_23simple_exception_policyItLt1ELt31ENS_9gregorian16bad_day_of_monthEEEE3maxEv @737
    _ZN5boost2CV17constrained_valueINS0_23simple_exception_policyItLt1ELt31ENS_9gregorian16bad_day_of_monthEEEE3minEv @738
    _ZN5boost2CV17constrained_valueINS0_23simple_exception_policyItLt1ELt31ENS_9gregorian16bad_day_of_monthEEEE6assignEt @739
    _ZN5boost2CV17constrained_valueINS0_23simple_exception_policyItLt1ELt31ENS_9gregorian16bad_day_of_monthEEEEC2Et @740
    _ZN5boost2CV23simple_exception_policyItLt1400ELt10000ENS_9gregorian8bad_yearEE3maxEv @741
    _ZN5boost2CV23simple_exception_policyItLt1400ELt10000ENS_9gregorian8bad_yearEE3minEv @742
    _ZN5boost2CV23simple_exception_policyItLt1400ELt10000ENS_9gregorian8bad_yearEE8on_errorEttNS0_14violation_enumE @743
    _ZN5boost2CV23simple_exception_policyItLt1ELt12ENS_9gregorian9bad_monthEE3maxEv @744
    _ZN5boost2CV23simple_exception_policyItLt1ELt12ENS_9gregorian9bad_monthEE3minEv @745
    _ZN5boost2CV23simple_exception_policyItLt1ELt12ENS_9gregorian9bad_monthEE8on_errorEttNS0_14violation_enumE @746
    _ZN5boost2CV23simple_exception_policyItLt1ELt31ENS_9gregorian16bad_day_of_monthEE3maxEv @747
    _ZN5boost2CV23simple_exception_policyItLt1ELt31ENS_9gregorian16bad_day_of_monthEE3minEv @748
    _ZN5boost2CV23simple_exception_policyItLt1ELt31ENS_9gregorian16bad_day_of_monthEE8on_errorEttNS0_14violation_enumE @749
    _ZN5boost36throw_exception_assert_compatibilityERKSt9exception @750
    _ZN5boost3argILi1EEC1Ev @751
    _ZN5boost3argILi2EEC1Ev @752
    _ZN5boost3argILi3EEC1Ev @753
    _ZN5boost3argILi4EEC1Ev @754
    _ZN5boost3argILi5EEC1Ev @755
    _ZN5boost3argILi6EEC1Ev @756
    _ZN5boost3argILi7EEC1Ev @757
    _ZN5boost3argILi8EEC1Ev @758
    _ZN5boost3argILi9EEC1Ev @759
    _ZN5boost5mutexD1Ev @760
    _ZN5boost6detail10empty_baseINS_10posix_time13time_durationEEC2Ev @761
    _ZN5boost6detail10empty_baseINS_10posix_time5ptimeEEC2Ev @762
    _ZN5boost6detail10empty_baseINS_9gregorian4dateEEC2Ev @763
    _ZN5boost6detail12get_tss_dataEPKv @764
    _ZN5boost6detail12set_tss_dataEPKvNS_10shared_ptrINS0_20tss_cleanup_functionEEEPvb @765
    _ZN5boost6detail13find_tss_dataEPKv @766
    _ZN5boost6detail16thread_data_baseD0Ev @767
    _ZN5boost6detail16thread_data_baseD1Ev @768
    _ZN5boost6detail17basic_timed_mutex4lockEv @769
    _ZN5boost6detail17basic_timed_mutex6unlockEv @770
    _ZN5boost6detail17basic_timed_mutex9get_eventEv @771
    _ZN5boost6detail17create_once_mutexEPv @772
    _ZN5boost6detail20free_raw_heap_memoryEPv @773
    _ZN5boost6detail24add_thread_exit_functionEPNS0_25thread_exit_function_baseE @774
    _ZN5boost6detail24allocate_raw_heap_memoryEj @775
    _ZN5boost6detail5win3214handle_managerD1Ev @776
    _ZN5boost6detail7timeoutC1Ey @777
    _ZN5boost6thread10timed_joinERKNS_10posix_time5ptimeE @778
    _ZN5boost6thread12start_threadEv @779
    _ZN5boost6thread13native_handleEv @780
    _ZN5boost6thread14release_handleEv @781
    _ZN5boost6thread20hardware_concurrencyEv @782
    _ZN5boost6thread4joinEv @783
    _ZN5boost6thread6detachEv @784
    _ZN5boost6thread9interruptEv @785
    _ZN5boost6threadC1ENS_13intrusive_ptrINS_6detail16thread_data_baseEEE @786
    _ZN5boost6threadC1Ev @787
    _ZN5boost6threadC2ENS_13intrusive_ptrINS_6detail16thread_data_baseEEE @788
    _ZN5boost6threadC2Ev @789
    _ZN5boost6threadD1Ev @790
    _ZN5boost6threadD2Ev @791
    _ZN5boost9date_time10date_facetINS_9gregorian4dateEcSt19ostreambuf_iteratorIcSt11char_traitsIcEEE2idE @792 DATA
    _ZN5boost9date_time11int_adapterImE10is_neg_infEm @793
    _ZN5boost9date_time11int_adapterImE10is_pos_infEm @794
    _ZN5boost9date_time11int_adapterImE12neg_infinityEv @795
    _ZN5boost9date_time11int_adapterImE12not_a_numberEv @796
    _ZN5boost9date_time11int_adapterImE12pos_infinityEv @797
    _ZN5boost9date_time11int_adapterImE15is_not_a_numberEm @798
    _ZN5boost9date_time11int_adapterImE6is_infEm @799
    _ZN5boost9date_time11int_adapterImEC1Em @800
    _ZN5boost9date_time11int_adapterIxE10is_neg_infEx @801
    _ZN5boost9date_time11int_adapterIxE10is_pos_infEx @802
    _ZN5boost9date_time11int_adapterIxE12neg_infinityEv @803
    _ZN5boost9date_time11int_adapterIxE12not_a_numberEv @804
    _ZN5boost9date_time11int_adapterIxE12pos_infinityEv @805
    _ZN5boost9date_time11int_adapterIxEC1Ex @806
    _ZN5boost9date_time13time_durationINS_10posix_time13time_durationENS0_22time_resolution_traitsINS0_37time_resolution_traits_adapted64_implELNS0_16time_resolutionsE5ELx1000000ELt6EiEEE16ticks_per_secondEv @807
    _ZN5boost9date_time13time_durationINS_10posix_time13time_durationENS0_22time_resolution_traitsINS0_37time_resolution_traits_adapted64_implELNS0_16time_resolutionsE5ELx1000000ELt6EiEEEC2ERKS8_ @808
    _ZN5boost9date_time13time_durationINS_10posix_time13time_durationENS0_22time_resolution_traitsINS0_37time_resolution_traits_adapted64_implELNS0_16time_resolutionsE5ELx1000000ELt6EiEEEC2Eiiix @809
    _ZN5boost9date_time14absolute_valueIiEET_S2_ @810
    _ZN5boost9date_time14absolute_valueIxEET_S2_ @811
    _ZN5boost9date_time14microsec_clockINS_10posix_time5ptimeEE11create_timeEPFP2tmPKlS6_E @812
    _ZN5boost9date_time14microsec_clockINS_10posix_time5ptimeEE14universal_timeEv @813
    _ZN5boost9date_time16counted_time_repINS_10posix_time33millisec_posix_time_system_configEE16frac_sec_per_dayEv @814
    _ZN5boost9date_time16counted_time_repINS_10posix_time33millisec_posix_time_system_configEEC1ERKNS_9gregorian4dateERKNS2_13time_durationE @815
    _ZN5boost9date_time18subsecond_durationINS_10posix_time13time_durationELx1000EEC1Ex @816
    _ZN5boost9date_time19counted_time_systemINS0_16counted_time_repINS_10posix_time33millisec_posix_time_system_configEEEE10unused_varINS0_9dst_flagsEEEvRKT_ @817
    _ZN5boost9date_time19counted_time_systemINS0_16counted_time_repINS_10posix_time33millisec_posix_time_system_configEEEE12get_time_repERKNS_9gregorian4dateERKNS3_13time_durationENS0_9dst_flagsE @818
    _ZN5boost9date_time19year_month_day_baseINS_9gregorian9greg_yearENS2_10greg_monthENS2_8greg_dayEEC1ES3_S4_S5_ @819
    _ZN5boost9date_time22time_resolution_traitsINS0_37time_resolution_traits_adapted64_implELNS0_16time_resolutionsE5ELx1000000ELt6EiE10is_adaptedEv @820
    _ZN5boost9date_time22time_resolution_traitsINS0_37time_resolution_traits_adapted64_implELNS0_16time_resolutionsE5ELx1000000ELt6EiE10res_adjustEv @821
    _ZN5boost9date_time22time_resolution_traitsINS0_37time_resolution_traits_adapted64_implELNS0_16time_resolutionsE5ELx1000000ELt6EiE13to_tick_countEiiix @822
    _ZN5boost9date_time22time_resolution_traitsINS0_37time_resolution_traits_adapted64_implELNS0_16time_resolutionsE5ELx1000000ELt6EiE9as_numberENS0_11int_adapterIxEE @823
    _ZN5boost9date_time23gregorian_calendar_baseINS0_19year_month_day_baseINS_9gregorian9greg_yearENS3_10greg_monthENS3_8greg_dayEEEmE10day_numberERKS7_ @824
    _ZN5boost9date_time23gregorian_calendar_baseINS0_19year_month_day_baseINS_9gregorian9greg_yearENS3_10greg_monthENS3_8greg_dayEEEmE12is_leap_yearES4_ @825
    _ZN5boost9date_time23gregorian_calendar_baseINS0_19year_month_day_baseINS_9gregorian9greg_yearENS3_10greg_monthENS3_8greg_dayEEEmE15from_day_numberEm @826
    _ZN5boost9date_time23gregorian_calendar_baseINS0_19year_month_day_baseINS_9gregorian9greg_yearENS3_10greg_monthENS3_8greg_dayEEEmE16end_of_month_dayES4_S5_ @827
    _ZN5boost9date_time37time_resolution_traits_adapted64_impl10is_adaptedEv @828
    _ZN5boost9date_time37time_resolution_traits_adapted64_impl9as_numberENS0_11int_adapterIxEE @829
    _ZN5boost9date_time4dateINS_9gregorian4dateENS2_18gregorian_calendarENS2_13date_durationEEC2ENS2_9greg_yearENS2_10greg_monthENS2_8greg_dayE @830
    _ZN5boost9date_time6c_time6gmtimeEPKlP2tm @831
    _ZN5boost9date_time6winapi25file_time_to_microsecondsINS1_8FILETIMEEEEyRKT_ @832
    _ZN5boost9date_time6winapi28get_system_time_as_file_timeERNS1_8FILETIMEE @833
    _ZN5boost9date_time9base_timeINS_10posix_time5ptimeENS0_19counted_time_systemINS0_16counted_time_repINS2_33millisec_posix_time_system_configEEEEEEC2ERKNS_9gregorian4dateERKNS2_13time_durationENS0_9dst_flagsE @834
    _ZN5boost9exceptionC2ERKS0_ @835
    _ZN5boost9exceptionC2Ev @836
    _ZN5boost9exceptionD2Ev @837
    _ZN5boost9exceptionaSERKS0_ @838
    _ZN5boost9gregorian10greg_monthC1Et @839
    _ZN5boost9gregorian16bad_day_of_monthC1ERKSs @840
    _ZN5boost9gregorian16bad_day_of_monthC1Ev @841
    _ZN5boost9gregorian16bad_day_of_monthC2ERKS1_ @842
    _ZN5boost9gregorian16bad_day_of_monthD0Ev @843
    _ZN5boost9gregorian16bad_day_of_monthD1Ev @844
    _ZN5boost9gregorian16bad_day_of_monthD2Ev @845
    _ZN5boost9gregorian4dateC1ENS0_9greg_yearENS0_10greg_monthENS0_8greg_dayE @846
    _ZN5boost9gregorian4dateC1ENS_9date_time14special_valuesE @847
    _ZN5boost9gregorian8bad_yearC1Ev @848
    _ZN5boost9gregorian8bad_yearC2ERKS1_ @849
    _ZN5boost9gregorian8bad_yearD0Ev @850
    _ZN5boost9gregorian8bad_yearD1Ev @851
    _ZN5boost9gregorian8bad_yearD2Ev @852
    _ZN5boost9gregorian8greg_dayC1Et @853
    _ZN5boost9gregorian9bad_monthC1Ev @854
    _ZN5boost9gregorian9bad_monthC2ERKS1_ @855
    _ZN5boost9gregorian9bad_monthD0Ev @856
    _ZN5boost9gregorian9bad_monthD1Ev @857
    _ZN5boost9gregorian9bad_monthD2Ev @858
    _ZN5boost9gregorian9greg_yearC1Et @859
    _ZN5boost9intrusive11rbtree_implINS0_6setoptINS0_6detail16base_hook_traitsINS_12interprocess15rbtree_best_fitINS5_12mutex_familyENS5_10offset_ptrIvEELj0EE10block_ctrlENS0_18rbtree_node_traitsIS9_Lb1EEELNS0_14link_mode_typeE0ENS0_11default_tagELi3EEESt4lessISB_EjLb1EEEE11lower_boundIjNSA_23size_block_ctrl_compareEEENS0_13tree_iteratorISK_Lb0EEERKT_T0_ @860
    _ZN5boost9intrusive11rbtree_implINS0_6setoptINS0_6detail16base_hook_traitsINS_12interprocess15rbtree_best_fitINS5_12mutex_familyENS5_10offset_ptrIvEELj0EE10block_ctrlENS0_18rbtree_node_traitsIS9_Lb1EEELNS0_14link_mode_typeE0ENS0_11default_tagELi3EEESt4lessISB_EjLb1EEEE11priv_headerEv @861
    _ZN5boost9intrusive11rbtree_implINS0_6setoptINS0_6detail16base_hook_traitsINS_12interprocess15rbtree_best_fitINS5_12mutex_familyENS5_10offset_ptrIvEELj0EE10block_ctrlENS0_18rbtree_node_traitsIS9_Lb1EEELNS0_14link_mode_typeE0ENS0_11default_tagELi3EEESt4lessISB_EjLb1EEEE12insert_equalENS0_13tree_iteratorISK_Lb1EEERSB_ @862
    _ZN5boost9intrusive11rbtree_implINS0_6setoptINS0_6detail16base_hook_traitsINS_12interprocess15rbtree_best_fitINS5_12mutex_familyENS5_10offset_ptrIvEELj0EE10block_ctrlENS0_18rbtree_node_traitsIS9_Lb1EEELNS0_14link_mode_typeE0ENS0_11default_tagELi3EEESt4lessISB_EjLb1EEEE12insert_equalERSB_ @863
    _ZN5boost9intrusive11rbtree_implINS0_6setoptINS0_6detail16base_hook_traitsINS_12interprocess15rbtree_best_fitINS5_12mutex_familyENS5_10offset_ptrIvEELj0EE10block_ctrlENS0_18rbtree_node_traitsIS9_Lb1EEELNS0_14link_mode_typeE0ENS0_11default_tagELi3EEESt4lessISB_EjLb1EEEE12replace_nodeENS0_13tree_iteratorISK_Lb0EEERSB_ @864
    _ZN5boost9intrusive11rbtree_implINS0_6setoptINS0_6detail16base_hook_traitsINS_12interprocess15rbtree_best_fitINS5_12mutex_familyENS5_10offset_ptrIvEELj0EE10block_ctrlENS0_18rbtree_node_traitsIS9_Lb1EEELNS0_14link_mode_typeE0ENS0_11default_tagELi3EEESt4lessISB_EjLb1EEEE13s_iterator_toERSB_ @865
    _ZN5boost9intrusive11rbtree_implINS0_6setoptINS0_6detail16base_hook_traitsINS_12interprocess15rbtree_best_fitINS5_12mutex_familyENS5_10offset_ptrIvEELj0EE10block_ctrlENS0_18rbtree_node_traitsIS9_Lb1EEELNS0_14link_mode_typeE0ENS0_11default_tagELi3EEESt4lessISB_EjLb1EEEE16header_plus_sizeC1Ev @866
    _ZN5boost9intrusive11rbtree_implINS0_6setoptINS0_6detail16base_hook_traitsINS_12interprocess15rbtree_best_fitINS5_12mutex_familyENS5_10offset_ptrIvEELj0EE10block_ctrlENS0_18rbtree_node_traitsIS9_Lb1EEELNS0_14link_mode_typeE0ENS0_11default_tagELi3EEESt4lessISB_EjLb1EEEE16node_plus_pred_tC1ERKSI_ @867
    _ZN5boost9intrusive11rbtree_implINS0_6setoptINS0_6detail16base_hook_traitsINS_12interprocess15rbtree_best_fitINS5_12mutex_familyENS5_10offset_ptrIvEELj0EE10block_ctrlENS0_18rbtree_node_traitsIS9_Lb1EEELNS0_14link_mode_typeE0ENS0_11default_tagELi3EEESt4lessISB_EjLb1EEEE16priv_size_traitsEv @868
    _ZN5boost9intrusive11rbtree_implINS0_6setoptINS0_6detail16base_hook_traitsINS_12interprocess15rbtree_best_fitINS5_12mutex_familyENS5_10offset_ptrIvEELj0EE10block_ctrlENS0_18rbtree_node_traitsIS9_Lb1EEELNS0_14link_mode_typeE0ENS0_11default_tagELi3EEESt4lessISB_EjLb1EEEE21get_real_value_traitsENS3_5bool_ILb0EEE @869
    _ZN5boost9intrusive11rbtree_implINS0_6setoptINS0_6detail16base_hook_traitsINS_12interprocess15rbtree_best_fitINS5_12mutex_familyENS5_10offset_ptrIvEELj0EE10block_ctrlENS0_18rbtree_node_traitsIS9_Lb1EEELNS0_14link_mode_typeE0ENS0_11default_tagELi3EEESt4lessISB_EjLb1EEEE21get_real_value_traitsEv @870
    _ZN5boost9intrusive11rbtree_implINS0_6setoptINS0_6detail16base_hook_traitsINS_12interprocess15rbtree_best_fitINS5_12mutex_familyENS5_10offset_ptrIvEELj0EE10block_ctrlENS0_18rbtree_node_traitsIS9_Lb1EEELNS0_14link_mode_typeE0ENS0_11default_tagELi3EEESt4lessISB_EjLb1EEEE3endEv @871
    _ZN5boost9intrusive11rbtree_implINS0_6setoptINS0_6detail16base_hook_traitsINS_12interprocess15rbtree_best_fitINS5_12mutex_familyENS5_10offset_ptrIvEELj0EE10block_ctrlENS0_18rbtree_node_traitsIS9_Lb1EEELNS0_14link_mode_typeE0ENS0_11default_tagELi3EEESt4lessISB_EjLb1EEEE5beginEv @872
    _ZN5boost9intrusive11rbtree_implINS0_6setoptINS0_6detail16base_hook_traitsINS_12interprocess15rbtree_best_fitINS5_12mutex_familyENS5_10offset_ptrIvEELj0EE10block_ctrlENS0_18rbtree_node_traitsIS9_Lb1EEELNS0_14link_mode_typeE0ENS0_11default_tagELi3EEESt4lessISB_EjLb1EEEE5clearEv @873
    _ZN5boost9intrusive11rbtree_implINS0_6setoptINS0_6detail16base_hook_traitsINS_12interprocess15rbtree_best_fitINS5_12mutex_familyENS5_10offset_ptrIvEELj0EE10block_ctrlENS0_18rbtree_node_traitsIS9_Lb1EEELNS0_14link_mode_typeE0ENS0_11default_tagELi3EEESt4lessISB_EjLb1EEEE5eraseENS0_13tree_iteratorISK_Lb1EEE @874
    _ZN5boost9intrusive11rbtree_implINS0_6setoptINS0_6detail16base_hook_traitsINS_12interprocess15rbtree_best_fitINS5_12mutex_familyENS5_10offset_ptrIvEELj0EE10block_ctrlENS0_18rbtree_node_traitsIS9_Lb1EEELNS0_14link_mode_typeE0ENS0_11default_tagELi3EEESt4lessISB_EjLb1EEEE6data_tC1ERKSI_RKSG_ @875
    _ZN5boost9intrusive11rbtree_implINS0_6setoptINS0_6detail16base_hook_traitsINS_12interprocess15rbtree_best_fitINS5_12mutex_familyENS5_10offset_ptrIvEELj0EE10block_ctrlENS0_18rbtree_node_traitsIS9_Lb1EEELNS0_14link_mode_typeE0ENS0_11default_tagELi3EEESt4lessISB_EjLb1EEEE9priv_compEv @876
    _ZN5boost9intrusive11rbtree_implINS0_6setoptINS0_6detail16base_hook_traitsINS_12interprocess15rbtree_best_fitINS5_12mutex_familyENS5_10offset_ptrIvEELj0EE10block_ctrlENS0_18rbtree_node_traitsIS9_Lb1EEELNS0_14link_mode_typeE0ENS0_11default_tagELi3EEESt4lessISB_EjLb1EEEEC1ERKSI_RKSG_ @877
    _ZN5boost9intrusive11rbtree_implINS0_6setoptINS0_6detail16base_hook_traitsINS_12interprocess15rbtree_best_fitINS5_12mutex_familyENS5_10offset_ptrIvEELj0EE10block_ctrlENS0_18rbtree_node_traitsIS9_Lb1EEELNS0_14link_mode_typeE0ENS0_11default_tagELi3EEESt4lessISB_EjLb1EEEED1Ev @878
    _ZN5boost9intrusive11rbtree_implINS0_6setoptINS0_6detail16base_hook_traitsINS_12interprocess6detail25intrusive_value_type_implINS3_12generic_hookINS0_17get_set_node_algoINS5_10offset_ptrIvEELb1EEENS0_11default_tagELNS0_14link_mode_typeE1ELi3EEEcEENS0_18rbtree_node_traitsISB_Lb1EEELSE_1ESD_Li3EEESt4lessISG_EjLb1EEEE11priv_headerEv @879
    _ZN5boost9intrusive11rbtree_implINS0_6setoptINS0_6detail16base_hook_traitsINS_12interprocess6detail25intrusive_value_type_implINS3_12generic_hookINS0_17get_set_node_algoINS5_10offset_ptrIvEELb1EEENS0_11default_tagELNS0_14link_mode_typeE1ELi3EEEcEENS0_18rbtree_node_traitsISB_Lb1EEELSE_1ESD_Li3EEESt4lessISG_EjLb1EEEE16header_plus_sizeC1Ev @880
    _ZN5boost9intrusive11rbtree_implINS0_6setoptINS0_6detail16base_hook_traitsINS_12interprocess6detail25intrusive_value_type_implINS3_12generic_hookINS0_17get_set_node_algoINS5_10offset_ptrIvEELb1EEENS0_11default_tagELNS0_14link_mode_typeE1ELi3EEEcEENS0_18rbtree_node_traitsISB_Lb1EEELSE_1ESD_Li3EEESt4lessISG_EjLb1EEEE16node_plus_pred_tC1ERKSL_ @881
    _ZN5boost9intrusive11rbtree_implINS0_6setoptINS0_6detail16base_hook_traitsINS_12interprocess6detail25intrusive_value_type_implINS3_12generic_hookINS0_17get_set_node_algoINS5_10offset_ptrIvEELb1EEENS0_11default_tagELNS0_14link_mode_typeE1ELi3EEEcEENS0_18rbtree_node_traitsISB_Lb1EEELSE_1ESD_Li3EEESt4lessISG_EjLb1EEEE16priv_size_traitsEv @882
    _ZN5boost9intrusive11rbtree_implINS0_6setoptINS0_6detail16base_hook_traitsINS_12interprocess6detail25intrusive_value_type_implINS3_12generic_hookINS0_17get_set_node_algoINS5_10offset_ptrIvEELb1EEENS0_11default_tagELNS0_14link_mode_typeE1ELi3EEEcEENS0_18rbtree_node_traitsISB_Lb1EEELSE_1ESD_Li3EEESt4lessISG_EjLb1EEEE17clear_and_disposeINS3_13null_disposerEEEvT_ @883
    _ZN5boost9intrusive11rbtree_implINS0_6setoptINS0_6detail16base_hook_traitsINS_12interprocess6detail25intrusive_value_type_implINS3_12generic_hookINS0_17get_set_node_algoINS5_10offset_ptrIvEELb1EEENS0_11default_tagELNS0_14link_mode_typeE1ELi3EEEcEENS0_18rbtree_node_traitsISB_Lb1EEELSE_1ESD_Li3EEESt4lessISG_EjLb1EEEE19insert_unique_checkINS6_21intrusive_compare_keyIcEENS5_10iset_indexINS6_12index_configIcNS5_15rbtree_best_fitINS5_12mutex_familyESB_Lj0EEEEEE24intrusive_key_value_lessEEESt4pairINS0_13tree_iteratorISN_Lb0EEEbERKT_T0_RNS3_15tree_algorithmsISI_E18insert_commit_dataE @884
    _ZN5boost9intrusive11rbtree_implINS0_6setoptINS0_6detail16base_hook_traitsINS_12interprocess6detail25intrusive_value_type_implINS3_12generic_hookINS0_17get_set_node_algoINS5_10offset_ptrIvEELb1EEENS0_11default_tagELNS0_14link_mode_typeE1ELi3EEEcEENS0_18rbtree_node_traitsISB_Lb1EEELSE_1ESD_Li3EEESt4lessISG_EjLb1EEEE20insert_unique_commitERSG_RKNS3_15tree_algorithmsISI_E18insert_commit_dataE @885
    _ZN5boost9intrusive11rbtree_implINS0_6setoptINS0_6detail16base_hook_traitsINS_12interprocess6detail25intrusive_value_type_implINS3_12generic_hookINS0_17get_set_node_algoINS5_10offset_ptrIvEELb1EEENS0_11default_tagELNS0_14link_mode_typeE1ELi3EEEcEENS0_18rbtree_node_traitsISB_Lb1EEELSE_1ESD_Li3EEESt4lessISG_EjLb1EEEE21get_real_value_traitsENS3_5bool_ILb0EEE @886
    _ZN5boost9intrusive11rbtree_implINS0_6setoptINS0_6detail16base_hook_traitsINS_12interprocess6detail25intrusive_value_type_implINS3_12generic_hookINS0_17get_set_node_algoINS5_10offset_ptrIvEELb1EEENS0_11default_tagELNS0_14link_mode_typeE1ELi3EEEcEENS0_18rbtree_node_traitsISB_Lb1EEELSE_1ESD_Li3EEESt4lessISG_EjLb1EEEE21get_real_value_traitsEv @887
    _ZN5boost9intrusive11rbtree_implINS0_6setoptINS0_6detail16base_hook_traitsINS_12interprocess6detail25intrusive_value_type_implINS3_12generic_hookINS0_17get_set_node_algoINS5_10offset_ptrIvEELb1EEENS0_11default_tagELNS0_14link_mode_typeE1ELi3EEEcEENS0_18rbtree_node_traitsISB_Lb1EEELSE_1ESD_Li3EEESt4lessISG_EjLb1EEEE3endEv @888
    _ZN5boost9intrusive11rbtree_implINS0_6setoptINS0_6detail16base_hook_traitsINS_12interprocess6detail25intrusive_value_type_implINS3_12generic_hookINS0_17get_set_node_algoINS5_10offset_ptrIvEELb1EEENS0_11default_tagELNS0_14link_mode_typeE1ELi3EEEcEENS0_18rbtree_node_traitsISB_Lb1EEELSE_1ESD_Li3EEESt4lessISG_EjLb1EEEE4findINS6_21intrusive_compare_keyIcEENS5_10iset_indexINS6_12index_configIcNS5_15rbtree_best_fitINS5_12mutex_familyESB_Lj0EEEEEE24intrusive_key_value_lessEEENS0_13tree_iteratorISN_Lb0EEERKT_T0_ @889
    _ZN5boost9intrusive11rbtree_implINS0_6setoptINS0_6detail16base_hook_traitsINS_12interprocess6detail25intrusive_value_type_implINS3_12generic_hookINS0_17get_set_node_algoINS5_10offset_ptrIvEELb1EEENS0_11default_tagELNS0_14link_mode_typeE1ELi3EEEcEENS0_18rbtree_node_traitsISB_Lb1EEELSE_1ESD_Li3EEESt4lessISG_EjLb1EEEE5clearEv @890
    _ZN5boost9intrusive11rbtree_implINS0_6setoptINS0_6detail16base_hook_traitsINS_12interprocess6detail25intrusive_value_type_implINS3_12generic_hookINS0_17get_set_node_algoINS5_10offset_ptrIvEELb1EEENS0_11default_tagELNS0_14link_mode_typeE1ELi3EEEcEENS0_18rbtree_node_traitsISB_Lb1EEELSE_1ESD_Li3EEESt4lessISG_EjLb1EEEE5eraseENS0_13tree_iteratorISN_Lb1EEE @891
    _ZN5boost9intrusive11rbtree_implINS0_6setoptINS0_6detail16base_hook_traitsINS_12interprocess6detail25intrusive_value_type_implINS3_12generic_hookINS0_17get_set_node_algoINS5_10offset_ptrIvEELb1EEENS0_11default_tagELNS0_14link_mode_typeE1ELi3EEEcEENS0_18rbtree_node_traitsISB_Lb1EEELSE_1ESD_Li3EEESt4lessISG_EjLb1EEEE6data_tC1ERKSL_RKSJ_ @892
    _ZN5boost9intrusive11rbtree_implINS0_6setoptINS0_6detail16base_hook_traitsINS_12interprocess6detail25intrusive_value_type_implINS3_12generic_hookINS0_17get_set_node_algoINS5_10offset_ptrIvEELb1EEENS0_11default_tagELNS0_14link_mode_typeE1ELi3EEEcEENS0_18rbtree_node_traitsISB_Lb1EEELSE_1ESD_Li3EEESt4lessISG_EjLb1EEEEC1ERKSL_RKSJ_ @893
    _ZN5boost9intrusive11rbtree_implINS0_6setoptINS0_6detail16base_hook_traitsINS_12interprocess6detail25intrusive_value_type_implINS3_12generic_hookINS0_17get_set_node_algoINS5_10offset_ptrIvEELb1EEENS0_11default_tagELNS0_14link_mode_typeE1ELi3EEEcEENS0_18rbtree_node_traitsISB_Lb1EEELSE_1ESD_Li3EEESt4lessISG_EjLb1EEEED1Ev @894
    _ZN5boost9intrusive11rbtree_implINS0_6setoptINS0_6detail16base_hook_traitsINS_22interprocess_container17containers_detail11rbtree_nodeISt4pairIKi16ShPendingCommandENS_12interprocess10offset_ptrIvEEEENS0_18rbtree_node_traitsISE_Lb1EEELNS0_14link_mode_typeE0ENS0_11default_tagELi3EEENS6_12node_compareINS6_18value_compare_implIiSB_St4lessIiENS6_9select1stISB_EEEESF_EEjLb1EEEE11lower_boundIiNS6_6rbtreeIiSB_SQ_SO_NSC_9allocatorISB_NSC_15segment_managerIcNSC_15rbtree_best_fitINSC_12mutex_familyESE_Lj0EEENSC_10iset_indexEEEEEE16key_node_compareISR_EEEENS0_13tree_iteratorISU_Lb0EEERKT_T0_ @895
    _ZN5boost9intrusive11rbtree_implINS0_6setoptINS0_6detail16base_hook_traitsINS_22interprocess_container17containers_detail11rbtree_nodeISt4pairIKi16ShPendingCommandENS_12interprocess10offset_ptrIvEEEENS0_18rbtree_node_traitsISE_Lb1EEELNS0_14link_mode_typeE0ENS0_11default_tagELi3EEENS6_12node_compareINS6_18value_compare_implIiSB_St4lessIiENS6_9select1stISB_EEEESF_EEjLb1EEEE11priv_headerEv @896
    _ZN5boost9intrusive11rbtree_implINS0_6setoptINS0_6detail16base_hook_traitsINS_22interprocess_container17containers_detail11rbtree_nodeISt4pairIKi16ShPendingCommandENS_12interprocess10offset_ptrIvEEEENS0_18rbtree_node_traitsISE_Lb1EEELNS0_14link_mode_typeE0ENS0_11default_tagELi3EEENS6_12node_compareINS6_18value_compare_implIiSB_St4lessIiENS6_9select1stISB_EEEESF_EEjLb1EEEE16priv_size_traitsEv @897
    _ZN5boost9intrusive11rbtree_implINS0_6setoptINS0_6detail16base_hook_traitsINS_22interprocess_container17containers_detail11rbtree_nodeISt4pairIKi16ShPendingCommandENS_12interprocess10offset_ptrIvEEEENS0_18rbtree_node_traitsISE_Lb1EEELNS0_14link_mode_typeE0ENS0_11default_tagELi3EEENS6_12node_compareINS6_18value_compare_implIiSB_St4lessIiENS6_9select1stISB_EEEESF_EEjLb1EEEE17clear_and_disposeINS6_37allocator_destroyer_and_chain_builderINSC_9allocatorISF_NSC_15segment_managerIcNSC_15rbtree_best_fitINSC_12mutex_familyESE_Lj0EEENSC_10iset_indexEEEEEEEEEvT_ @898
    _ZN5boost9intrusive11rbtree_implINS0_6setoptINS0_6detail16base_hook_traitsINS_22interprocess_container17containers_detail11rbtree_nodeISt4pairIKi16ShPendingCommandENS_12interprocess10offset_ptrIvEEEENS0_18rbtree_node_traitsISE_Lb1EEELNS0_14link_mode_typeE0ENS0_11default_tagELi3EEENS6_12node_compareINS6_18value_compare_implIiSB_St4lessIiENS6_9select1stISB_EEEESF_EEjLb1EEEE19insert_unique_checkIiNS6_6rbtreeIiSB_SQ_SO_NSC_9allocatorISB_NSC_15segment_managerIcNSC_15rbtree_best_fitINSC_12mutex_familyESE_Lj0EEENSC_10iset_indexEEEEEE16key_node_compareISR_EEEES8_INS0_13tree_iteratorISU_Lb0EEEbENS18_ISU_Lb1EEERKT_T0_RNS3_15tree_algorithmsISH_E18insert_commit_dataE @899
    _ZN5boost9intrusive11rbtree_implINS0_6setoptINS0_6detail16base_hook_traitsINS_22interprocess_container17containers_detail11rbtree_nodeISt4pairIKi16ShPendingCommandENS_12interprocess10offset_ptrIvEEEENS0_18rbtree_node_traitsISE_Lb1EEELNS0_14link_mode_typeE0ENS0_11default_tagELi3EEENS6_12node_compareINS6_18value_compare_implIiSB_St4lessIiENS6_9select1stISB_EEEESF_EEjLb1EEEE20insert_unique_commitERSF_RKNS3_15tree_algorithmsISH_E18insert_commit_dataE @900
    _ZN5boost9intrusive11rbtree_implINS0_6setoptINS0_6detail16base_hook_traitsINS_22interprocess_container17containers_detail11rbtree_nodeISt4pairIKi16ShPendingCommandENS_12interprocess10offset_ptrIvEEEENS0_18rbtree_node_traitsISE_Lb1EEELNS0_14link_mode_typeE0ENS0_11default_tagELi3EEENS6_12node_compareINS6_18value_compare_implIiSB_St4lessIiENS6_9select1stISB_EEEESF_EEjLb1EEEE21get_real_value_traitsENS3_5bool_ILb0EEE @901
    _ZN5boost9intrusive11rbtree_implINS0_6setoptINS0_6detail16base_hook_traitsINS_22interprocess_container17containers_detail11rbtree_nodeISt4pairIKi16ShPendingCommandENS_12interprocess10offset_ptrIvEEEENS0_18rbtree_node_traitsISE_Lb1EEELNS0_14link_mode_typeE0ENS0_11default_tagELi3EEENS6_12node_compareINS6_18value_compare_implIiSB_St4lessIiENS6_9select1stISB_EEEESF_EEjLb1EEEE21get_real_value_traitsEv @902
    _ZN5boost9intrusive11rbtree_implINS0_6setoptINS0_6detail16base_hook_traitsINS_22interprocess_container17containers_detail11rbtree_nodeISt4pairIKi16ShPendingCommandENS_12interprocess10offset_ptrIvEEEENS0_18rbtree_node_traitsISE_Lb1EEELNS0_14link_mode_typeE0ENS0_11default_tagELi3EEENS6_12node_compareINS6_18value_compare_implIiSB_St4lessIiENS6_9select1stISB_EEEESF_EEjLb1EEEE3endEv @903
    _ZN5boost9intrusive11rbtree_implINS0_6setoptINS0_6detail16base_hook_traitsINS_22interprocess_container17containers_detail11rbtree_nodeISt4pairIKi16ShPendingCommandENS_12interprocess10offset_ptrIvEEEENS0_18rbtree_node_traitsISE_Lb1EEELNS0_14link_mode_typeE0ENS0_11default_tagELi3EEENS6_12node_compareINS6_18value_compare_implIiSB_St4lessIiENS6_9select1stISB_EEEESF_EEjLb1EEEE5clearEv @904
    _ZN5boost9intrusive11rbtree_implINS0_6setoptINS0_6detail16base_hook_traitsINS_22interprocess_container17containers_detail11rbtree_nodeISt4pairIKi16ShPendingCommandENS_12interprocess10offset_ptrIvEEEENS0_18rbtree_node_traitsISE_Lb1EEELNS0_14link_mode_typeE0ENS0_11default_tagELi3EEENS6_12node_compareINS6_18value_compare_implIiSB_St4lessIiENS6_9select1stISB_EEEESF_EEjLb1EEEED1Ev @905
    _ZN5boost9intrusive11rbtree_implINS0_6setoptINS0_6detail16base_hook_traitsINS_22interprocess_container17containers_detail11rbtree_nodeISt4pairIKi6ShUnitENS_12interprocess10offset_ptrIvEEEENS0_18rbtree_node_traitsISE_Lb1EEELNS0_14link_mode_typeE0ENS0_11default_tagELi3EEENS6_12node_compareINS6_18value_compare_implIiSB_St4lessIiENS6_9select1stISB_EEEESF_EEjLb1EEEE11priv_headerEv @906
    _ZN5boost9intrusive11rbtree_implINS0_6setoptINS0_6detail16base_hook_traitsINS_22interprocess_container17containers_detail11rbtree_nodeISt4pairIKi6ShUnitENS_12interprocess10offset_ptrIvEEEENS0_18rbtree_node_traitsISE_Lb1EEELNS0_14link_mode_typeE0ENS0_11default_tagELi3EEENS6_12node_compareINS6_18value_compare_implIiSB_St4lessIiENS6_9select1stISB_EEEESF_EEjLb1EEEE16priv_size_traitsEv @907
    _ZN5boost9intrusive11rbtree_implINS0_6setoptINS0_6detail16base_hook_traitsINS_22interprocess_container17containers_detail11rbtree_nodeISt4pairIKi6ShUnitENS_12interprocess10offset_ptrIvEEEENS0_18rbtree_node_traitsISE_Lb1EEELNS0_14link_mode_typeE0ENS0_11default_tagELi3EEENS6_12node_compareINS6_18value_compare_implIiSB_St4lessIiENS6_9select1stISB_EEEESF_EEjLb1EEEE17clear_and_disposeINS6_37allocator_destroyer_and_chain_builderINSC_9allocatorISF_NSC_15segment_managerIcNSC_15rbtree_best_fitINSC_12mutex_familyESE_Lj0EEENSC_10iset_indexEEEEEEEEEvT_ @908
    _ZN5boost9intrusive11rbtree_implINS0_6setoptINS0_6detail16base_hook_traitsINS_22interprocess_container17containers_detail11rbtree_nodeISt4pairIKi6ShUnitENS_12interprocess10offset_ptrIvEEEENS0_18rbtree_node_traitsISE_Lb1EEELNS0_14link_mode_typeE0ENS0_11default_tagELi3EEENS6_12node_compareINS6_18value_compare_implIiSB_St4lessIiENS6_9select1stISB_EEEESF_EEjLb1EEEE3endEv @909
    _ZN5boost9intrusive11rbtree_implINS0_6setoptINS0_6detail16base_hook_traitsINS_22interprocess_container17containers_detail11rbtree_nodeISt4pairIKi6ShUnitENS_12interprocess10offset_ptrIvEEEENS0_18rbtree_node_traitsISE_Lb1EEELNS0_14link_mode_typeE0ENS0_11default_tagELi3EEENS6_12node_compareINS6_18value_compare_implIiSB_St4lessIiENS6_9select1stISB_EEEESF_EEjLb1EEEE4findIiNS6_6rbtreeIiSB_SQ_SO_NSC_9allocatorISB_NSC_15segment_managerIcNSC_15rbtree_best_fitINSC_12mutex_familyESE_Lj0EEENSC_10iset_indexEEEEEE16key_node_compareISR_EEEENS0_13tree_iteratorISU_Lb0EEERKT_T0_ @910
    _ZN5boost9intrusive11rbtree_implINS0_6setoptINS0_6detail16base_hook_traitsINS_22interprocess_container17containers_detail11rbtree_nodeISt4pairIKi6ShUnitENS_12interprocess10offset_ptrIvEEEENS0_18rbtree_node_traitsISE_Lb1EEELNS0_14link_mode_typeE0ENS0_11default_tagELi3EEENS6_12node_compareINS6_18value_compare_implIiSB_St4lessIiENS6_9select1stISB_EEEESF_EEjLb1EEEE5clearEv @911
    _ZN5boost9intrusive11rbtree_implINS0_6setoptINS0_6detail16base_hook_traitsINS_22interprocess_container17containers_detail11rbtree_nodeISt4pairIKi6ShUnitENS_12interprocess10offset_ptrIvEEEENS0_18rbtree_node_traitsISE_Lb1EEELNS0_14link_mode_typeE0ENS0_11default_tagELi3EEENS6_12node_compareINS6_18value_compare_implIiSB_St4lessIiENS6_9select1stISB_EEEESF_EEjLb1EEEED1Ev @912
    _ZN5boost9intrusive13multiset_implINS0_6setoptINS0_6detail16base_hook_traitsINS_12interprocess15rbtree_best_fitINS5_12mutex_familyENS5_10offset_ptrIvEELj0EE10block_ctrlENS0_18rbtree_node_traitsIS9_Lb1EEELNS0_14link_mode_typeE0ENS0_11default_tagELi3EEESt4lessISB_EjLb1EEEE11lower_boundIjNSA_23size_block_ctrl_compareEEENS0_13tree_iteratorINS0_11rbtree_implISJ_EELb0EEERKT_T0_ @913
    _ZN5boost9intrusive13multiset_implINS0_6setoptINS0_6detail16base_hook_traitsINS_12interprocess15rbtree_best_fitINS5_12mutex_familyENS5_10offset_ptrIvEELj0EE10block_ctrlENS0_18rbtree_node_traitsIS9_Lb1EEELNS0_14link_mode_typeE0ENS0_11default_tagELi3EEESt4lessISB_EjLb1EEEE12replace_nodeENS0_13tree_iteratorINS0_11rbtree_implISJ_EELb0EEERSB_ @914
    _ZN5boost9intrusive13multiset_implINS0_6setoptINS0_6detail16base_hook_traitsINS_12interprocess15rbtree_best_fitINS5_12mutex_familyENS5_10offset_ptrIvEELj0EE10block_ctrlENS0_18rbtree_node_traitsIS9_Lb1EEELNS0_14link_mode_typeE0ENS0_11default_tagELi3EEESt4lessISB_EjLb1EEEE13s_iterator_toERSB_ @915
    _ZN5boost9intrusive13multiset_implINS0_6setoptINS0_6detail16base_hook_traitsINS_12interprocess15rbtree_best_fitINS5_12mutex_familyENS5_10offset_ptrIvEELj0EE10block_ctrlENS0_18rbtree_node_traitsIS9_Lb1EEELNS0_14link_mode_typeE0ENS0_11default_tagELi3EEESt4lessISB_EjLb1EEEE3endEv @916
    _ZN5boost9intrusive13multiset_implINS0_6setoptINS0_6detail16base_hook_traitsINS_12interprocess15rbtree_best_fitINS5_12mutex_familyENS5_10offset_ptrIvEELj0EE10block_ctrlENS0_18rbtree_node_traitsIS9_Lb1EEELNS0_14link_mode_typeE0ENS0_11default_tagELi3EEESt4lessISB_EjLb1EEEE5beginEv @917
    _ZN5boost9intrusive13multiset_implINS0_6setoptINS0_6detail16base_hook_traitsINS_12interprocess15rbtree_best_fitINS5_12mutex_familyENS5_10offset_ptrIvEELj0EE10block_ctrlENS0_18rbtree_node_traitsIS9_Lb1EEELNS0_14link_mode_typeE0ENS0_11default_tagELi3EEESt4lessISB_EjLb1EEEE5eraseENS0_13tree_iteratorINS0_11rbtree_implISJ_EELb1EEE @918
    _ZN5boost9intrusive13multiset_implINS0_6setoptINS0_6detail16base_hook_traitsINS_12interprocess15rbtree_best_fitINS5_12mutex_familyENS5_10offset_ptrIvEELj0EE10block_ctrlENS0_18rbtree_node_traitsIS9_Lb1EEELNS0_14link_mode_typeE0ENS0_11default_tagELi3EEESt4lessISB_EjLb1EEEE6insertENS0_13tree_iteratorINS0_11rbtree_implISJ_EELb1EEERSB_ @919
    _ZN5boost9intrusive13multiset_implINS0_6setoptINS0_6detail16base_hook_traitsINS_12interprocess15rbtree_best_fitINS5_12mutex_familyENS5_10offset_ptrIvEELj0EE10block_ctrlENS0_18rbtree_node_traitsIS9_Lb1EEELNS0_14link_mode_typeE0ENS0_11default_tagELi3EEESt4lessISB_EjLb1EEEE6insertERSB_ @920
    _ZN5boost9intrusive13multiset_implINS0_6setoptINS0_6detail16base_hook_traitsINS_12interprocess15rbtree_best_fitINS5_12mutex_familyENS5_10offset_ptrIvEELj0EE10block_ctrlENS0_18rbtree_node_traitsIS9_Lb1EEELNS0_14link_mode_typeE0ENS0_11default_tagELi3EEESt4lessISB_EjLb1EEEEC1ERKSI_RKSG_ @921
    _ZN5boost9intrusive13multiset_implINS0_6setoptINS0_6detail16base_hook_traitsINS_12interprocess15rbtree_best_fitINS5_12mutex_familyENS5_10offset_ptrIvEELj0EE10block_ctrlENS0_18rbtree_node_traitsIS9_Lb1EEELNS0_14link_mode_typeE0ENS0_11default_tagELi3EEESt4lessISB_EjLb1EEEED1Ev @922
    _ZN5boost9intrusive13tree_iteratorINS0_11rbtree_implINS0_6setoptINS0_6detail16base_hook_traitsINS_12interprocess15rbtree_best_fitINS6_12mutex_familyENS6_10offset_ptrIvEELj0EE10block_ctrlENS0_18rbtree_node_traitsISA_Lb1EEELNS0_14link_mode_typeE0ENS0_11default_tagELi3EEESt4lessISC_EjLb1EEEEELb0EE7membersC1ERKNS9_INS0_19compact_rbtree_nodeISA_EEEEPKv @923
    _ZN5boost9intrusive13tree_iteratorINS0_11rbtree_implINS0_6setoptINS0_6detail16base_hook_traitsINS_12interprocess15rbtree_best_fitINS6_12mutex_familyENS6_10offset_ptrIvEELj0EE10block_ctrlENS0_18rbtree_node_traitsISA_Lb1EEELNS0_14link_mode_typeE0ENS0_11default_tagELi3EEESt4lessISC_EjLb1EEEEELb0EE7membersaSERKSN_ @924
    _ZN5boost9intrusive13tree_iteratorINS0_11rbtree_implINS0_6setoptINS0_6detail16base_hook_traitsINS_12interprocess15rbtree_best_fitINS6_12mutex_familyENS6_10offset_ptrIvEELj0EE10block_ctrlENS0_18rbtree_node_traitsISA_Lb1EEELNS0_14link_mode_typeE0ENS0_11default_tagELi3EEESt4lessISC_EjLb1EEEEELb0EEC1ENS9_INS0_19compact_rbtree_nodeISA_EEEEPKSL_ @925
    _ZN5boost9intrusive13tree_iteratorINS0_11rbtree_implINS0_6setoptINS0_6detail16base_hook_traitsINS_12interprocess15rbtree_best_fitINS6_12mutex_familyENS6_10offset_ptrIvEELj0EE10block_ctrlENS0_18rbtree_node_traitsISA_Lb1EEELNS0_14link_mode_typeE0ENS0_11default_tagELi3EEESt4lessISC_EjLb1EEEEELb0EEC1ERKSM_ @926
    _ZN5boost9intrusive13tree_iteratorINS0_11rbtree_implINS0_6setoptINS0_6detail16base_hook_traitsINS_12interprocess15rbtree_best_fitINS6_12mutex_familyENS6_10offset_ptrIvEELj0EE10block_ctrlENS0_18rbtree_node_traitsISA_Lb1EEELNS0_14link_mode_typeE0ENS0_11default_tagELi3EEESt4lessISC_EjLb1EEEEELb0EEC1Ev @927
    _ZN5boost9intrusive13tree_iteratorINS0_11rbtree_implINS0_6setoptINS0_6detail16base_hook_traitsINS_12interprocess15rbtree_best_fitINS6_12mutex_familyENS6_10offset_ptrIvEELj0EE10block_ctrlENS0_18rbtree_node_traitsISA_Lb1EEELNS0_14link_mode_typeE0ENS0_11default_tagELi3EEESt4lessISC_EjLb1EEEEELb0EEaSERKSM_ @928
    _ZN5boost9intrusive13tree_iteratorINS0_11rbtree_implINS0_6setoptINS0_6detail16base_hook_traitsINS_12interprocess15rbtree_best_fitINS6_12mutex_familyENS6_10offset_ptrIvEELj0EE10block_ctrlENS0_18rbtree_node_traitsISA_Lb1EEELNS0_14link_mode_typeE0ENS0_11default_tagELi3EEESt4lessISC_EjLb1EEEEELb0EEmmEv @929
    _ZN5boost9intrusive13tree_iteratorINS0_11rbtree_implINS0_6setoptINS0_6detail16base_hook_traitsINS_12interprocess15rbtree_best_fitINS6_12mutex_familyENS6_10offset_ptrIvEELj0EE10block_ctrlENS0_18rbtree_node_traitsISA_Lb1EEELNS0_14link_mode_typeE0ENS0_11default_tagELi3EEESt4lessISC_EjLb1EEEEELb0EEppEv @930
    _ZN5boost9intrusive13tree_iteratorINS0_11rbtree_implINS0_6setoptINS0_6detail16base_hook_traitsINS_12interprocess15rbtree_best_fitINS6_12mutex_familyENS6_10offset_ptrIvEELj0EE10block_ctrlENS0_18rbtree_node_traitsISA_Lb1EEELNS0_14link_mode_typeE0ENS0_11default_tagELi3EEESt4lessISC_EjLb1EEEEELb1EE7membersC1ERKNS9_INS0_19compact_rbtree_nodeISA_EEEEPKv @931
    _ZN5boost9intrusive13tree_iteratorINS0_11rbtree_implINS0_6setoptINS0_6detail16base_hook_traitsINS_12interprocess15rbtree_best_fitINS6_12mutex_familyENS6_10offset_ptrIvEELj0EE10block_ctrlENS0_18rbtree_node_traitsISA_Lb1EEELNS0_14link_mode_typeE0ENS0_11default_tagELi3EEESt4lessISC_EjLb1EEEEELb1EE7membersC1ERKSN_ @932
    _ZN5boost9intrusive13tree_iteratorINS0_11rbtree_implINS0_6setoptINS0_6detail16base_hook_traitsINS_12interprocess15rbtree_best_fitINS6_12mutex_familyENS6_10offset_ptrIvEELj0EE10block_ctrlENS0_18rbtree_node_traitsISA_Lb1EEELNS0_14link_mode_typeE0ENS0_11default_tagELi3EEESt4lessISC_EjLb1EEEEELb1EEC1ERKNS1_ISL_Lb0EEE @933
    _ZN5boost9intrusive13tree_iteratorINS0_11rbtree_implINS0_6setoptINS0_6detail16base_hook_traitsINS_12interprocess15rbtree_best_fitINS6_12mutex_familyENS6_10offset_ptrIvEELj0EE10block_ctrlENS0_18rbtree_node_traitsISA_Lb1EEELNS0_14link_mode_typeE0ENS0_11default_tagELi3EEESt4lessISC_EjLb1EEEEELb1EEC1ERKSM_ @934
    _ZN5boost9intrusive13tree_iteratorINS0_11rbtree_implINS0_6setoptINS0_6detail16base_hook_traitsINS_12interprocess15rbtree_best_fitINS6_12mutex_familyENS6_10offset_ptrIvEELj0EE10block_ctrlENS0_18rbtree_node_traitsISA_Lb1EEELNS0_14link_mode_typeE0ENS0_11default_tagELi3EEESt4lessISC_EjLb1EEEEELb1EEppEv @935
    _ZN5boost9intrusive13tree_iteratorINS0_11rbtree_implINS0_6setoptINS0_6detail16base_hook_traitsINS_12interprocess6detail25intrusive_value_type_implINS4_12generic_hookINS0_17get_set_node_algoINS6_10offset_ptrIvEELb1EEENS0_11default_tagELNS0_14link_mode_typeE1ELi3EEEcEENS0_18rbtree_node_traitsISC_Lb1EEELSF_1ESE_Li3EEESt4lessISH_EjLb1EEEEELb0EE7membersC1ERKNSB_INS0_19compact_rbtree_nodeISC_EEEEPKv @936
    _ZN5boost9intrusive13tree_iteratorINS0_11rbtree_implINS0_6setoptINS0_6detail16base_hook_traitsINS_12interprocess6detail25intrusive_value_type_implINS4_12generic_hookINS0_17get_set_node_algoINS6_10offset_ptrIvEELb1EEENS0_11default_tagELNS0_14link_mode_typeE1ELi3EEEcEENS0_18rbtree_node_traitsISC_Lb1EEELSF_1ESE_Li3EEESt4lessISH_EjLb1EEEEELb0EE7membersaSERKSQ_ @937
    _ZN5boost9intrusive13tree_iteratorINS0_11rbtree_implINS0_6setoptINS0_6detail16base_hook_traitsINS_12interprocess6detail25intrusive_value_type_implINS4_12generic_hookINS0_17get_set_node_algoINS6_10offset_ptrIvEELb1EEENS0_11default_tagELNS0_14link_mode_typeE1ELi3EEEcEENS0_18rbtree_node_traitsISC_Lb1EEELSF_1ESE_Li3EEESt4lessISH_EjLb1EEEEELb0EEC1ENSB_INS0_19compact_rbtree_nodeISC_EEEEPKSO_ @938
    _ZN5boost9intrusive13tree_iteratorINS0_11rbtree_implINS0_6setoptINS0_6detail16base_hook_traitsINS_12interprocess6detail25intrusive_value_type_implINS4_12generic_hookINS0_17get_set_node_algoINS6_10offset_ptrIvEELb1EEENS0_11default_tagELNS0_14link_mode_typeE1ELi3EEEcEENS0_18rbtree_node_traitsISC_Lb1EEELSF_1ESE_Li3EEESt4lessISH_EjLb1EEEEELb0EEC1ERKSP_ @939
    _ZN5boost9intrusive13tree_iteratorINS0_11rbtree_implINS0_6setoptINS0_6detail16base_hook_traitsINS_12interprocess6detail25intrusive_value_type_implINS4_12generic_hookINS0_17get_set_node_algoINS6_10offset_ptrIvEELb1EEENS0_11default_tagELNS0_14link_mode_typeE1ELi3EEEcEENS0_18rbtree_node_traitsISC_Lb1EEELSF_1ESE_Li3EEESt4lessISH_EjLb1EEEEELb0EEC1Ev @940
    _ZN5boost9intrusive13tree_iteratorINS0_11rbtree_implINS0_6setoptINS0_6detail16base_hook_traitsINS_12interprocess6detail25intrusive_value_type_implINS4_12generic_hookINS0_17get_set_node_algoINS6_10offset_ptrIvEELb1EEENS0_11default_tagELNS0_14link_mode_typeE1ELi3EEEcEENS0_18rbtree_node_traitsISC_Lb1EEELSF_1ESE_Li3EEESt4lessISH_EjLb1EEEEELb0EEaSERKSP_ @941
    _ZN5boost9intrusive13tree_iteratorINS0_11rbtree_implINS0_6setoptINS0_6detail16base_hook_traitsINS_12interprocess6detail25intrusive_value_type_implINS4_12generic_hookINS0_17get_set_node_algoINS6_10offset_ptrIvEELb1EEENS0_11default_tagELNS0_14link_mode_typeE1ELi3EEEcEENS0_18rbtree_node_traitsISC_Lb1EEELSF_1ESE_Li3EEESt4lessISH_EjLb1EEEEELb1EE7membersC1ERKNSB_INS0_19compact_rbtree_nodeISC_EEEEPKv @942
    _ZN5boost9intrusive13tree_iteratorINS0_11rbtree_implINS0_6setoptINS0_6detail16base_hook_traitsINS_12interprocess6detail25intrusive_value_type_implINS4_12generic_hookINS0_17get_set_node_algoINS6_10offset_ptrIvEELb1EEENS0_11default_tagELNS0_14link_mode_typeE1ELi3EEEcEENS0_18rbtree_node_traitsISC_Lb1EEELSF_1ESE_Li3EEESt4lessISH_EjLb1EEEEELb1EE7membersC1ERKSQ_ @943
    _ZN5boost9intrusive13tree_iteratorINS0_11rbtree_implINS0_6setoptINS0_6detail16base_hook_traitsINS_12interprocess6detail25intrusive_value_type_implINS4_12generic_hookINS0_17get_set_node_algoINS6_10offset_ptrIvEELb1EEENS0_11default_tagELNS0_14link_mode_typeE1ELi3EEEcEENS0_18rbtree_node_traitsISC_Lb1EEELSF_1ESE_Li3EEESt4lessISH_EjLb1EEEEELb1EEC1ERKNS1_ISO_Lb0EEE @944
    _ZN5boost9intrusive13tree_iteratorINS0_11rbtree_implINS0_6setoptINS0_6detail16base_hook_traitsINS_12interprocess6detail25intrusive_value_type_implINS4_12generic_hookINS0_17get_set_node_algoINS6_10offset_ptrIvEELb1EEENS0_11default_tagELNS0_14link_mode_typeE1ELi3EEEcEENS0_18rbtree_node_traitsISC_Lb1EEELSF_1ESE_Li3EEESt4lessISH_EjLb1EEEEELb1EEC1ERKSP_ @945
    _ZN5boost9intrusive13tree_iteratorINS0_11rbtree_implINS0_6setoptINS0_6detail16base_hook_traitsINS_12interprocess6detail25intrusive_value_type_implINS4_12generic_hookINS0_17get_set_node_algoINS6_10offset_ptrIvEELb1EEENS0_11default_tagELNS0_14link_mode_typeE1ELi3EEEcEENS0_18rbtree_node_traitsISC_Lb1EEELSF_1ESE_Li3EEESt4lessISH_EjLb1EEEEELb1EEppEv @946
    _ZN5boost9intrusive13tree_iteratorINS0_11rbtree_implINS0_6setoptINS0_6detail16base_hook_traitsINS_22interprocess_container17containers_detail11rbtree_nodeISt4pairIKi16ShPendingCommandENS_12interprocess10offset_ptrIvEEEENS0_18rbtree_node_traitsISF_Lb1EEELNS0_14link_mode_typeE0ENS0_11default_tagELi3EEENS7_12node_compareINS7_18value_compare_implIiSC_St4lessIiENS7_9select1stISC_EEEESG_EEjLb1EEEEELb0EE7membersC1ERKNSE_INS0_19compact_rbtree_nodeISF_EEEEPKv @947
    _ZN5boost9intrusive13tree_iteratorINS0_11rbtree_implINS0_6setoptINS0_6detail16base_hook_traitsINS_22interprocess_container17containers_detail11rbtree_nodeISt4pairIKi16ShPendingCommandENS_12interprocess10offset_ptrIvEEEENS0_18rbtree_node_traitsISF_Lb1EEELNS0_14link_mode_typeE0ENS0_11default_tagELi3EEENS7_12node_compareINS7_18value_compare_implIiSC_St4lessIiENS7_9select1stISC_EEEESG_EEjLb1EEEEELb0EE7membersaSERKSX_ @948
    _ZN5boost9intrusive13tree_iteratorINS0_11rbtree_implINS0_6setoptINS0_6detail16base_hook_traitsINS_22interprocess_container17containers_detail11rbtree_nodeISt4pairIKi16ShPendingCommandENS_12interprocess10offset_ptrIvEEEENS0_18rbtree_node_traitsISF_Lb1EEELNS0_14link_mode_typeE0ENS0_11default_tagELi3EEENS7_12node_compareINS7_18value_compare_implIiSC_St4lessIiENS7_9select1stISC_EEEESG_EEjLb1EEEEELb0EEC1ENSE_INS0_19compact_rbtree_nodeISF_EEEEPKSV_ @949
    _ZN5boost9intrusive13tree_iteratorINS0_11rbtree_implINS0_6setoptINS0_6detail16base_hook_traitsINS_22interprocess_container17containers_detail11rbtree_nodeISt4pairIKi16ShPendingCommandENS_12interprocess10offset_ptrIvEEEENS0_18rbtree_node_traitsISF_Lb1EEELNS0_14link_mode_typeE0ENS0_11default_tagELi3EEENS7_12node_compareINS7_18value_compare_implIiSC_St4lessIiENS7_9select1stISC_EEEESG_EEjLb1EEEEELb0EEC1ERKSW_ @950
    _ZN5boost9intrusive13tree_iteratorINS0_11rbtree_implINS0_6setoptINS0_6detail16base_hook_traitsINS_22interprocess_container17containers_detail11rbtree_nodeISt4pairIKi16ShPendingCommandENS_12interprocess10offset_ptrIvEEEENS0_18rbtree_node_traitsISF_Lb1EEELNS0_14link_mode_typeE0ENS0_11default_tagELi3EEENS7_12node_compareINS7_18value_compare_implIiSC_St4lessIiENS7_9select1stISC_EEEESG_EEjLb1EEEEELb0EEaSERKSW_ @951
    _ZN5boost9intrusive13tree_iteratorINS0_11rbtree_implINS0_6setoptINS0_6detail16base_hook_traitsINS_22interprocess_container17containers_detail11rbtree_nodeISt4pairIKi16ShPendingCommandENS_12interprocess10offset_ptrIvEEEENS0_18rbtree_node_traitsISF_Lb1EEELNS0_14link_mode_typeE0ENS0_11default_tagELi3EEENS7_12node_compareINS7_18value_compare_implIiSC_St4lessIiENS7_9select1stISC_EEEESG_EEjLb1EEEEELb1EE7membersC1ERKNSE_INS0_19compact_rbtree_nodeISF_EEEEPKv @952
    _ZN5boost9intrusive13tree_iteratorINS0_11rbtree_implINS0_6setoptINS0_6detail16base_hook_traitsINS_22interprocess_container17containers_detail11rbtree_nodeISt4pairIKi16ShPendingCommandENS_12interprocess10offset_ptrIvEEEENS0_18rbtree_node_traitsISF_Lb1EEELNS0_14link_mode_typeE0ENS0_11default_tagELi3EEENS7_12node_compareINS7_18value_compare_implIiSC_St4lessIiENS7_9select1stISC_EEEESG_EEjLb1EEEEELb1EEC1ERKNS1_ISV_Lb0EEE @953
    _ZN5boost9intrusive13tree_iteratorINS0_11rbtree_implINS0_6setoptINS0_6detail16base_hook_traitsINS_22interprocess_container17containers_detail11rbtree_nodeISt4pairIKi6ShUnitENS_12interprocess10offset_ptrIvEEEENS0_18rbtree_node_traitsISF_Lb1EEELNS0_14link_mode_typeE0ENS0_11default_tagELi3EEENS7_12node_compareINS7_18value_compare_implIiSC_St4lessIiENS7_9select1stISC_EEEESG_EEjLb1EEEEELb0EE7membersC1ERKNSE_INS0_19compact_rbtree_nodeISF_EEEEPKv @954
    _ZN5boost9intrusive13tree_iteratorINS0_11rbtree_implINS0_6setoptINS0_6detail16base_hook_traitsINS_22interprocess_container17containers_detail11rbtree_nodeISt4pairIKi6ShUnitENS_12interprocess10offset_ptrIvEEEENS0_18rbtree_node_traitsISF_Lb1EEELNS0_14link_mode_typeE0ENS0_11default_tagELi3EEENS7_12node_compareINS7_18value_compare_implIiSC_St4lessIiENS7_9select1stISC_EEEESG_EEjLb1EEEEELb0EEC1ENSE_INS0_19compact_rbtree_nodeISF_EEEEPKSV_ @955
    _ZN5boost9intrusive13tree_iteratorINS0_11rbtree_implINS0_6setoptINS0_6detail16base_hook_traitsINS_22interprocess_container17containers_detail11rbtree_nodeISt4pairIKi6ShUnitENS_12interprocess10offset_ptrIvEEEENS0_18rbtree_node_traitsISF_Lb1EEELNS0_14link_mode_typeE0ENS0_11default_tagELi3EEENS7_12node_compareINS7_18value_compare_implIiSC_St4lessIiENS7_9select1stISC_EEEESG_EEjLb1EEEEELb0EEC1ERKSW_ @956
    _ZN5boost9intrusive17pointer_plus_bitsINS_12interprocess10offset_ptrINS0_19compact_rbtree_nodeINS3_IvEEEEEELj1EE11get_pointerERKS7_ @957
    _ZN5boost9intrusive17pointer_plus_bitsINS_12interprocess10offset_ptrINS0_19compact_rbtree_nodeINS3_IvEEEEEELj1EE11set_pointerERS7_S7_ @958
    _ZN5boost9intrusive17pointer_plus_bitsINS_12interprocess10offset_ptrINS0_19compact_rbtree_nodeINS3_IvEEEEEELj1EE8get_bitsERKS7_ @959
    _ZN5boost9intrusive17pointer_plus_bitsINS_12interprocess10offset_ptrINS0_19compact_rbtree_nodeINS3_IvEEEEEELj1EE8set_bitsERS7_j @960
    _ZN5boost9intrusive17rbtree_algorithmsINS0_18rbtree_node_traitsINS_12interprocess10offset_ptrIvEELb1EEEE11init_headerENS4_INS0_19compact_rbtree_nodeIS5_EEEE @961
    _ZN5boost9intrusive17rbtree_algorithmsINS0_18rbtree_node_traitsINS_12interprocess10offset_ptrIvEELb1EEEE11lower_boundIiNS0_6detail16key_nodeptr_compINS_22interprocess_container17containers_detail6rbtreeIiSt4pairIKi16ShPendingCommandENSC_9select1stISH_EESt4lessIiENS3_9allocatorISH_NS3_15segment_managerIcNS3_15rbtree_best_fitINS3_12mutex_familyES5_Lj0EEENS3_10iset_indexEEEEEE16key_node_compareINSC_18value_compare_implIiSH_SL_SJ_EEEENS0_11rbtree_implINS0_6setoptINS9_16base_hook_traitsINSC_11rbtree_nodeISH_S5_EES6_LNS0_14link_mode_typeE0ENS0_11default_tagELi3EEENSC_12node_compareISX_S13_EEjLb1EEEEEEEEENS4_INS0_19compact_rbtree_nodeIS5_EEEENS4_IKS1D_EERKT_T0_ @962
    _ZN5boost9intrusive17rbtree_algorithmsINS0_18rbtree_node_traitsINS_12interprocess10offset_ptrIvEELb1EEEE11lower_boundIjNS0_6detail16key_nodeptr_compINS3_15rbtree_best_fitINS3_12mutex_familyES5_Lj0EE23size_block_ctrl_compareENS0_11rbtree_implINS0_6setoptINS9_16base_hook_traitsINSD_10block_ctrlES6_LNS0_14link_mode_typeE0ENS0_11default_tagELi3EEESt4lessISI_EjLb1EEEEEEEEENS4_INS0_19compact_rbtree_nodeIS5_EEEENS4_IKSS_EERKT_T0_ @963
    _ZN5boost9intrusive17rbtree_algorithmsINS0_18rbtree_node_traitsINS_12interprocess10offset_ptrIvEELb1EEEE12insert_equalINS0_6detail16key_nodeptr_compISt4lessINS3_15rbtree_best_fitINS3_12mutex_familyES5_Lj0EE10block_ctrlEENS0_11rbtree_implINS0_6setoptINS9_16base_hook_traitsISF_S6_LNS0_14link_mode_typeE0ENS0_11default_tagELi3EEESG_jLb1EEEEEEEEENS4_INS0_19compact_rbtree_nodeIS5_EEEESS_SS_SS_T_ @964
    _ZN5boost9intrusive17rbtree_algorithmsINS0_18rbtree_node_traitsINS_12interprocess10offset_ptrIvEELb1EEEE12replace_nodeENS4_INS0_19compact_rbtree_nodeIS5_EEEESA_SA_ @965
    _ZN5boost9intrusive17rbtree_algorithmsINS0_18rbtree_node_traitsINS_12interprocess10offset_ptrIvEELb1EEEE17clear_and_disposeINS0_6detail13node_disposerINS9_13null_disposerENS0_11rbtree_implINS0_6setoptINS9_16base_hook_traitsINS3_6detail25intrusive_value_type_implINS9_12generic_hookINS0_17get_set_node_algoIS5_Lb1EEENS0_11default_tagELNS0_14link_mode_typeE1ELi3EEEcEES6_LSL_1ESK_Li3EEESt4lessISN_EjLb1EEEEEEEEEvNS4_INS0_19compact_rbtree_nodeIS5_EEEET_ @966
    _ZN5boost9intrusive17rbtree_algorithmsINS0_18rbtree_node_traitsINS_12interprocess10offset_ptrIvEELb1EEEE17clear_and_disposeINS0_6detail13node_disposerINS_22interprocess_container17containers_detail37allocator_destroyer_and_chain_builderINS3_9allocatorINSC_11rbtree_nodeISt4pairIKi16ShPendingCommandES5_EENS3_15segment_managerIcNS3_15rbtree_best_fitINS3_12mutex_familyES5_Lj0EEENS3_10iset_indexEEEEEEENS0_11rbtree_implINS0_6setoptINS9_16base_hook_traitsISK_S6_LNS0_14link_mode_typeE0ENS0_11default_tagELi3EEENSC_12node_compareINSC_18value_compare_implIiSJ_St4lessIiENSC_9select1stISJ_EEEESK_EEjLb1EEEEEEEEEvNS4_INS0_19compact_rbtree_nodeIS5_EEEET_ @967
    _ZN5boost9intrusive17rbtree_algorithmsINS0_18rbtree_node_traitsINS_12interprocess10offset_ptrIvEELb1EEEE17clear_and_disposeINS0_6detail13node_disposerINS_22interprocess_container17containers_detail37allocator_destroyer_and_chain_builderINS3_9allocatorINSC_11rbtree_nodeISt4pairIKi6ShUnitES5_EENS3_15segment_managerIcNS3_15rbtree_best_fitINS3_12mutex_familyES5_Lj0EEENS3_10iset_indexEEEEEEENS0_11rbtree_implINS0_6setoptINS9_16base_hook_traitsISK_S6_LNS0_14link_mode_typeE0ENS0_11default_tagELi3EEENSC_12node_compareINSC_18value_compare_implIiSJ_St4lessIiENSC_9select1stISJ_EEEESK_EEjLb1EEEEEEEEEvNS4_INS0_19compact_rbtree_nodeIS5_EEEET_ @968
    _ZN5boost9intrusive17rbtree_algorithmsINS0_18rbtree_node_traitsINS_12interprocess10offset_ptrIvEELb1EEEE18rbtree_erase_fixupclENS4_INS0_19compact_rbtree_nodeIS5_EEEESB_ @969
    _ZN5boost9intrusive17rbtree_algorithmsINS0_18rbtree_node_traitsINS_12interprocess10offset_ptrIvEELb1EEEE19insert_unique_checkINS3_6detail21intrusive_compare_keyIcEENS0_6detail16key_nodeptr_compINS3_10iset_indexINS9_12index_configIcNS3_15rbtree_best_fitINS3_12mutex_familyES5_Lj0EEEEEE24intrusive_key_value_lessENS0_11rbtree_implINS0_6setoptINSC_16base_hook_traitsINS9_25intrusive_value_type_implINSC_12generic_hookINS0_17get_set_node_algoIS5_Lb1EEENS0_11default_tagELNS0_14link_mode_typeE1ELi3EEEcEES6_LSU_1EST_Li3EEESt4lessISW_EjLb1EEEEEEEEESt4pairINS4_INS0_19compact_rbtree_nodeIS5_EEEEbENS4_IKS15_EERKT_T0_RNSC_15tree_algorithmsIS6_E18insert_commit_dataE @970
    _ZN5boost9intrusive17rbtree_algorithmsINS0_18rbtree_node_traitsINS_12interprocess10offset_ptrIvEELb1EEEE19insert_unique_checkIiNS0_6detail16key_nodeptr_compINS_22interprocess_container17containers_detail6rbtreeIiSt4pairIKi16ShPendingCommandENSC_9select1stISH_EESt4lessIiENS3_9allocatorISH_NS3_15segment_managerIcNS3_15rbtree_best_fitINS3_12mutex_familyES5_Lj0EEENS3_10iset_indexEEEEEE16key_node_compareINSC_18value_compare_implIiSH_SL_SJ_EEEENS0_11rbtree_implINS0_6setoptINS9_16base_hook_traitsINSC_11rbtree_nodeISH_S5_EES6_LNS0_14link_mode_typeE0ENS0_11default_tagELi3EEENSC_12node_compareISX_S13_EEjLb1EEEEEEEEESE_INS4_INS0_19compact_rbtree_nodeIS5_EEEEbENS4_IKS1D_EES1E_RKT_T0_RNS9_15tree_algorithmsIS6_E18insert_commit_dataE @971
    _ZN5boost9intrusive17rbtree_algorithmsINS0_18rbtree_node_traitsINS_12interprocess10offset_ptrIvEELb1EEEE20insert_unique_commitENS4_INS0_19compact_rbtree_nodeIS5_EEEESA_RKNS0_6detail15tree_algorithmsIS6_E18insert_commit_dataE @972
    _ZN5boost9intrusive17rbtree_algorithmsINS0_18rbtree_node_traitsINS_12interprocess10offset_ptrIvEELb1EEEE23rebalance_after_erasureENS4_INS0_19compact_rbtree_nodeIS5_EEEESA_SA_ @973
    _ZN5boost9intrusive17rbtree_algorithmsINS0_18rbtree_node_traitsINS_12interprocess10offset_ptrIvEELb1EEEE24insert_equal_upper_boundINS0_6detail16key_nodeptr_compISt4lessINS3_15rbtree_best_fitINS3_12mutex_familyES5_Lj0EE10block_ctrlEENS0_11rbtree_implINS0_6setoptINS9_16base_hook_traitsISF_S6_LNS0_14link_mode_typeE0ENS0_11default_tagELi3EEESG_jLb1EEEEEEEEENS4_INS0_19compact_rbtree_nodeIS5_EEEESS_SS_T_ @974
    _ZN5boost9intrusive17rbtree_algorithmsINS0_18rbtree_node_traitsINS_12interprocess10offset_ptrIvEELb1EEEE25rebalance_after_insertionENS4_INS0_19compact_rbtree_nodeIS5_EEEESA_ @975
    _ZN5boost9intrusive17rbtree_algorithmsINS0_18rbtree_node_traitsINS_12interprocess10offset_ptrIvEELb1EEEE4findINS3_6detail21intrusive_compare_keyIcEENS0_6detail16key_nodeptr_compINS3_10iset_indexINS9_12index_configIcNS3_15rbtree_best_fitINS3_12mutex_familyES5_Lj0EEEEEE24intrusive_key_value_lessENS0_11rbtree_implINS0_6setoptINSC_16base_hook_traitsINS9_25intrusive_value_type_implINSC_12generic_hookINS0_17get_set_node_algoIS5_Lb1EEENS0_11default_tagELNS0_14link_mode_typeE1ELi3EEEcEES6_LSU_1EST_Li3EEESt4lessISW_EjLb1EEEEEEEEENS4_INS0_19compact_rbtree_nodeIS5_EEEENS4_IKS14_EERKT_T0_ @976
    _ZN5boost9intrusive17rbtree_algorithmsINS0_18rbtree_node_traitsINS_12interprocess10offset_ptrIvEELb1EEEE4findIiNS0_6detail16key_nodeptr_compINS_22interprocess_container17containers_detail6rbtreeIiSt4pairIKi6ShUnitENSC_9select1stISH_EESt4lessIiENS3_9allocatorISH_NS3_15segment_managerIcNS3_15rbtree_best_fitINS3_12mutex_familyES5_Lj0EEENS3_10iset_indexEEEEEE16key_node_compareINSC_18value_compare_implIiSH_SL_SJ_EEEENS0_11rbtree_implINS0_6setoptINS9_16base_hook_traitsINSC_11rbtree_nodeISH_S5_EES6_LNS0_14link_mode_typeE0ENS0_11default_tagELi3EEENSC_12node_compareISX_S13_EEjLb1EEEEEEEEENS4_INS0_19compact_rbtree_nodeIS5_EEEENS4_IKS1D_EERKT_T0_ @977
    _ZN5boost9intrusive17rbtree_algorithmsINS0_18rbtree_node_traitsINS_12interprocess10offset_ptrIvEELb1EEEE4initENS4_INS0_19compact_rbtree_nodeIS5_EEEE @978
    _ZN5boost9intrusive17rbtree_algorithmsINS0_18rbtree_node_traitsINS_12interprocess10offset_ptrIvEELb1EEEE5eraseENS4_INS0_19compact_rbtree_nodeIS5_EEEESA_ @979
    _ZN5boost9intrusive17rbtree_algorithmsINS0_18rbtree_node_traitsINS_12interprocess10offset_ptrIvEELb1EEEE6uniqueENS4_IKNS0_19compact_rbtree_nodeIS5_EEEE @980
    _ZN5boost9intrusive17rbtree_algorithmsINS0_18rbtree_node_traitsINS_12interprocess10offset_ptrIvEELb1EEEE9next_nodeENS4_INS0_19compact_rbtree_nodeIS5_EEEE @981
    _ZN5boost9intrusive17rbtree_algorithmsINS0_18rbtree_node_traitsINS_12interprocess10offset_ptrIvEELb1EEEE9prev_nodeENS4_INS0_19compact_rbtree_nodeIS5_EEEE @982
    _ZN5boost9intrusive19compact_rbtree_nodeINS_12interprocess10offset_ptrIvEEEC1Ev @983
    _ZN5boost9intrusive19compact_rbtree_nodeINS_12interprocess10offset_ptrIvEEEC2Ev @984
    _ZN5boost9intrusive31compact_rbtree_node_traits_implINS_12interprocess10offset_ptrIvEEE10get_parentENS3_IKNS0_19compact_rbtree_nodeIS4_EEEE @985
    _ZN5boost9intrusive31compact_rbtree_node_traits_implINS_12interprocess10offset_ptrIvEEE10set_parentENS3_INS0_19compact_rbtree_nodeIS4_EEEES8_ @986
    _ZN5boost9intrusive31compact_rbtree_node_traits_implINS_12interprocess10offset_ptrIvEEE3redEv @987
    _ZN5boost9intrusive31compact_rbtree_node_traits_implINS_12interprocess10offset_ptrIvEEE5blackEv @988
    _ZN5boost9intrusive31compact_rbtree_node_traits_implINS_12interprocess10offset_ptrIvEEE8get_leftENS3_IKNS0_19compact_rbtree_nodeIS4_EEEE @989
    _ZN5boost9intrusive31compact_rbtree_node_traits_implINS_12interprocess10offset_ptrIvEEE8set_leftENS3_INS0_19compact_rbtree_nodeIS4_EEEES8_ @990
    _ZN5boost9intrusive31compact_rbtree_node_traits_implINS_12interprocess10offset_ptrIvEEE9get_colorENS3_IKNS0_19compact_rbtree_nodeIS4_EEEE @991
    _ZN5boost9intrusive31compact_rbtree_node_traits_implINS_12interprocess10offset_ptrIvEEE9get_rightENS3_IKNS0_19compact_rbtree_nodeIS4_EEEE @992
    _ZN5boost9intrusive31compact_rbtree_node_traits_implINS_12interprocess10offset_ptrIvEEE9set_colorENS3_INS0_19compact_rbtree_nodeIS4_EEEENS7_5colorE @993
    _ZN5boost9intrusive31compact_rbtree_node_traits_implINS_12interprocess10offset_ptrIvEEE9set_rightENS3_INS0_19compact_rbtree_nodeIS4_EEEES8_ @994
    _ZN5boost9intrusive6detail11get_pointerINS_12interprocess10offset_ptrIKNS0_19compact_rbtree_nodeINS4_IvEEEEEEEENS1_14smart_ptr_typeIT_E7pointerERKSB_ @995
    _ZN5boost9intrusive6detail11get_pointerINS_12interprocess10offset_ptrINS3_15rbtree_best_fitINS3_12mutex_familyENS4_IvEELj0EE10block_ctrlEEEEENS1_14smart_ptr_typeIT_E7pointerERKSC_ @996
    _ZN5boost9intrusive6detail11get_pointerINS_12interprocess10offset_ptrINS3_6detail25intrusive_value_type_implINS1_12generic_hookINS0_17get_set_node_algoINS4_IvEELb1EEENS0_11default_tagELNS0_14link_mode_typeE1ELi3EEEcEEEEEENS1_14smart_ptr_typeIT_E7pointerERKSH_ @997
    _ZN5boost9intrusive6detail11get_pointerINS_12interprocess10offset_ptrINS_22interprocess_container17containers_detail11rbtree_nodeISt4pairIKi16ShPendingCommandENS4_IvEEEEEEEENS1_14smart_ptr_typeIT_E7pointerERKSG_ @998
    _ZN5boost9intrusive6detail11get_pointerINS_12interprocess10offset_ptrINS_22interprocess_container17containers_detail11rbtree_nodeISt4pairIKi6ShUnitENS4_IvEEEEEEEENS1_14smart_ptr_typeIT_E7pointerERKSG_ @999
    _ZN5boost9intrusive6detail11node_holderINS0_19compact_rbtree_nodeINS_12interprocess10offset_ptrIvEEEENS0_11default_tagELNS0_14link_mode_typeE0ELi3EEC2Ev @1000
    _ZN5boost9intrusive6detail11node_holderINS0_19compact_rbtree_nodeINS_12interprocess10offset_ptrIvEEEENS0_11default_tagELNS0_14link_mode_typeE1ELi3EEC2Ev @1001
    _ZN5boost9intrusive6detail11size_holderILb1EjE8set_sizeEj @1002
    _ZN5boost9intrusive6detail11size_holderILb1EjE9decrementEv @1003
    _ZN5boost9intrusive6detail11size_holderILb1EjE9incrementEv @1004
    _ZN5boost9intrusive6detail11size_holderILb1EjEC2Ev @1005
    _ZN5boost9intrusive6detail12generic_hookINS0_17get_set_node_algoINS_12interprocess10offset_ptrIvEELb1EEENS0_11default_tagELNS0_14link_mode_typeE0ELi3EEC2Ev @1006
    _ZN5boost9intrusive6detail12generic_hookINS0_17get_set_node_algoINS_12interprocess10offset_ptrIvEELb1EEENS0_11default_tagELNS0_14link_mode_typeE0ELi3EED2Ev @1007
    _ZN5boost9intrusive6detail12generic_hookINS0_17get_set_node_algoINS_12interprocess10offset_ptrIvEELb1EEENS0_11default_tagELNS0_14link_mode_typeE1ELi3EEC2Ev @1008
    _ZN5boost9intrusive6detail12generic_hookINS0_17get_set_node_algoINS_12interprocess10offset_ptrIvEELb1EEENS0_11default_tagELNS0_14link_mode_typeE1ELi3EED2Ev @1009
    _ZN5boost9intrusive6detail13node_disposerINS1_13null_disposerENS0_11rbtree_implINS0_6setoptINS1_16base_hook_traitsINS_12interprocess6detail25intrusive_value_type_implINS1_12generic_hookINS0_17get_set_node_algoINS7_10offset_ptrIvEELb1EEENS0_11default_tagELNS0_14link_mode_typeE1ELi3EEEcEENS0_18rbtree_node_traitsISD_Lb1EEELSG_1ESF_Li3EEESt4lessISI_EjLb1EEEEEEC1ES3_PKSP_ @1010
    _ZN5boost9intrusive6detail13node_disposerINS1_13null_disposerENS0_11rbtree_implINS0_6setoptINS1_16base_hook_traitsINS_12interprocess6detail25intrusive_value_type_implINS1_12generic_hookINS0_17get_set_node_algoINS7_10offset_ptrIvEELb1EEENS0_11default_tagELNS0_14link_mode_typeE1ELi3EEEcEENS0_18rbtree_node_traitsISD_Lb1EEELSG_1ESF_Li3EEESt4lessISI_EjLb1EEEEEEclENSC_INS0_19compact_rbtree_nodeISD_EEEE @1011
    _ZN5boost9intrusive6detail13node_disposerINS_22interprocess_container17containers_detail37allocator_destroyer_and_chain_builderINS_12interprocess9allocatorINS4_11rbtree_nodeISt4pairIKi16ShPendingCommandENS6_10offset_ptrIvEEEENS6_15segment_managerIcNS6_15rbtree_best_fitINS6_12mutex_familyESE_Lj0EEENS6_10iset_indexEEEEEEENS0_11rbtree_implINS0_6setoptINS1_16base_hook_traitsISF_NS0_18rbtree_node_traitsISE_Lb1EEELNS0_14link_mode_typeE0ENS0_11default_tagELi3EEENS4_12node_compareINS4_18value_compare_implIiSC_St4lessIiENS4_9select1stISC_EEEESF_EEjLb1EEEEEEC1ESN_PKS15_ @1012
    _ZN5boost9intrusive6detail13node_disposerINS_22interprocess_container17containers_detail37allocator_destroyer_and_chain_builderINS_12interprocess9allocatorINS4_11rbtree_nodeISt4pairIKi16ShPendingCommandENS6_10offset_ptrIvEEEENS6_15segment_managerIcNS6_15rbtree_best_fitINS6_12mutex_familyESE_Lj0EEENS6_10iset_indexEEEEEEENS0_11rbtree_implINS0_6setoptINS1_16base_hook_traitsISF_NS0_18rbtree_node_traitsISE_Lb1EEELNS0_14link_mode_typeE0ENS0_11default_tagELi3EEENS4_12node_compareINS4_18value_compare_implIiSC_St4lessIiENS4_9select1stISC_EEEESF_EEjLb1EEEEEEclENSD_INS0_19compact_rbtree_nodeISE_EEEE @1013
    _ZN5boost9intrusive6detail13node_disposerINS_22interprocess_container17containers_detail37allocator_destroyer_and_chain_builderINS_12interprocess9allocatorINS4_11rbtree_nodeISt4pairIKi6ShUnitENS6_10offset_ptrIvEEEENS6_15segment_managerIcNS6_15rbtree_best_fitINS6_12mutex_familyESE_Lj0EEENS6_10iset_indexEEEEEEENS0_11rbtree_implINS0_6setoptINS1_16base_hook_traitsISF_NS0_18rbtree_node_traitsISE_Lb1EEELNS0_14link_mode_typeE0ENS0_11default_tagELi3EEENS4_12node_compareINS4_18value_compare_implIiSC_St4lessIiENS4_9select1stISC_EEEESF_EEjLb1EEEEEEC1ESN_PKS15_ @1014
    _ZN5boost9intrusive6detail13node_disposerINS_22interprocess_container17containers_detail37allocator_destroyer_and_chain_builderINS_12interprocess9allocatorINS4_11rbtree_nodeISt4pairIKi6ShUnitENS6_10offset_ptrIvEEEENS6_15segment_managerIcNS6_15rbtree_best_fitINS6_12mutex_familyESE_Lj0EEENS6_10iset_indexEEEEEEENS0_11rbtree_implINS0_6setoptINS1_16base_hook_traitsISF_NS0_18rbtree_node_traitsISE_Lb1EEELNS0_14link_mode_typeE0ENS0_11default_tagELi3EEENS4_12node_compareINS4_18value_compare_implIiSC_St4lessIiENS4_9select1stISC_EEEESF_EEjLb1EEEEEEclENSD_INS0_19compact_rbtree_nodeISE_EEEE @1015
    _ZN5boost9intrusive6detail13null_disposerclINS_12interprocess10offset_ptrINS4_6detail25intrusive_value_type_implINS1_12generic_hookINS0_17get_set_node_algoINS5_IvEELb1EEENS0_11default_tagELNS0_14link_mode_typeE1ELi3EEEcEEEEEEvT_ @1016
    _ZN5boost9intrusive6detail14dummy_constptrC2EPKv @1017
    _ZN5boost9intrusive6detail14smart_ptr_typeINS_12interprocess10offset_ptrIKNS0_19compact_rbtree_nodeINS4_IvEEEEEEE3getERKS9_ @1018
    _ZN5boost9intrusive6detail14smart_ptr_typeINS_12interprocess10offset_ptrINS3_15rbtree_best_fitINS3_12mutex_familyENS4_IvEELj0EE10block_ctrlEEEE3getERKSA_ @1019
    _ZN5boost9intrusive6detail14smart_ptr_typeINS_12interprocess10offset_ptrINS3_6detail25intrusive_value_type_implINS1_12generic_hookINS0_17get_set_node_algoINS4_IvEELb1EEENS0_11default_tagELNS0_14link_mode_typeE1ELi3EEEcEEEEE3getERKSF_ @1020
    _ZN5boost9intrusive6detail14smart_ptr_typeINS_12interprocess10offset_ptrINS_22interprocess_container17containers_detail11rbtree_nodeISt4pairIKi16ShPendingCommandENS4_IvEEEEEEE3getERKSE_ @1021
    _ZN5boost9intrusive6detail14smart_ptr_typeINS_12interprocess10offset_ptrINS_22interprocess_container17containers_detail11rbtree_nodeISt4pairIKi6ShUnitENS4_IvEEEEEEE3getERKSE_ @1022
    _ZN5boost9intrusive6detail15default_definerINS1_12generic_hookINS0_17get_set_node_algoINS_12interprocess10offset_ptrIvEELb1EEENS0_11default_tagELNS0_14link_mode_typeE0ELi3EEELj3EEC2Ev @1023
    _ZN5boost9intrusive6detail15default_definerINS1_12generic_hookINS0_17get_set_node_algoINS_12interprocess10offset_ptrIvEELb1EEENS0_11default_tagELNS0_14link_mode_typeE1ELi3EEELj3EEC2Ev @1024
    _ZN5boost9intrusive6detail15destructor_implINS1_12generic_hookINS0_17get_set_node_algoINS_12interprocess10offset_ptrIvEELb1EEENS0_11default_tagELNS0_14link_mode_typeE0ELi3EEEEEvRT_NS1_13link_dispatchILSA_0EEE @1025
    _ZN5boost9intrusive6detail15destructor_implINS1_12generic_hookINS0_17get_set_node_algoINS_12interprocess10offset_ptrIvEELb1EEENS0_11default_tagELNS0_14link_mode_typeE1ELi3EEEEEvRT_NS1_13link_dispatchILSA_1EEE @1026
    _ZN5boost9intrusive6detail15tree_algorithmsINS0_18rbtree_node_traitsINS_12interprocess10offset_ptrIvEELb1EEEE10erase_implENS5_INS0_19compact_rbtree_nodeIS6_EEEESB_RNS8_18data_for_rebalanceE @1027
    _ZN5boost9intrusive6detail15tree_algorithmsINS0_18rbtree_node_traitsINS_12interprocess10offset_ptrIvEELb1EEEE11init_headerENS5_INS0_19compact_rbtree_nodeIS6_EEEE @1028
    _ZN5boost9intrusive6detail15tree_algorithmsINS0_18rbtree_node_traitsINS_12interprocess10offset_ptrIvEELb1EEEE11lower_boundINS4_6detail21intrusive_compare_keyIcEENS1_16key_nodeptr_compINS4_10iset_indexINSA_12index_configIcNS4_15rbtree_best_fitINS4_12mutex_familyES6_Lj0EEEEEE24intrusive_key_value_lessENS0_11rbtree_implINS0_6setoptINS1_16base_hook_traitsINSA_25intrusive_value_type_implINS1_12generic_hookINS0_17get_set_node_algoIS6_Lb1EEENS0_11default_tagELNS0_14link_mode_typeE1ELi3EEEcEES7_LSU_1EST_Li3EEESt4lessISW_EjLb1EEEEEEEEENS5_INS0_19compact_rbtree_nodeIS6_EEEENS5_IKS14_EERKT_T0_ @1029
    _ZN5boost9intrusive6detail15tree_algorithmsINS0_18rbtree_node_traitsINS_12interprocess10offset_ptrIvEELb1EEEE11lower_boundIiNS1_16key_nodeptr_compINS_22interprocess_container17containers_detail6rbtreeIiSt4pairIKi16ShPendingCommandENSC_9select1stISH_EESt4lessIiENS4_9allocatorISH_NS4_15segment_managerIcNS4_15rbtree_best_fitINS4_12mutex_familyES6_Lj0EEENS4_10iset_indexEEEEEE16key_node_compareINSC_18value_compare_implIiSH_SL_SJ_EEEENS0_11rbtree_implINS0_6setoptINS1_16base_hook_traitsINSC_11rbtree_nodeISH_S6_EES7_LNS0_14link_mode_typeE0ENS0_11default_tagELi3EEENSC_12node_compareISX_S13_EEjLb1EEEEEEEEENS5_INS0_19compact_rbtree_nodeIS6_EEEENS5_IKS1D_EERKT_T0_ @1030
    _ZN5boost9intrusive6detail15tree_algorithmsINS0_18rbtree_node_traitsINS_12interprocess10offset_ptrIvEELb1EEEE11lower_boundIiNS1_16key_nodeptr_compINS_22interprocess_container17containers_detail6rbtreeIiSt4pairIKi6ShUnitENSC_9select1stISH_EESt4lessIiENS4_9allocatorISH_NS4_15segment_managerIcNS4_15rbtree_best_fitINS4_12mutex_familyES6_Lj0EEENS4_10iset_indexEEEEEE16key_node_compareINSC_18value_compare_implIiSH_SL_SJ_EEEENS0_11rbtree_implINS0_6setoptINS1_16base_hook_traitsINSC_11rbtree_nodeISH_S6_EES7_LNS0_14link_mode_typeE0ENS0_11default_tagELi3EEENSC_12node_compareISX_S13_EEjLb1EEEEEEEEENS5_INS0_19compact_rbtree_nodeIS6_EEEENS5_IKS1D_EERKT_T0_ @1031
    _ZN5boost9intrusive6detail15tree_algorithmsINS0_18rbtree_node_traitsINS_12interprocess10offset_ptrIvEELb1EEEE11lower_boundIjNS1_16key_nodeptr_compINS4_15rbtree_best_fitINS4_12mutex_familyES6_Lj0EE23size_block_ctrl_compareENS0_11rbtree_implINS0_6setoptINS1_16base_hook_traitsINSD_10block_ctrlES7_LNS0_14link_mode_typeE0ENS0_11default_tagELi3EEESt4lessISI_EjLb1EEEEEEEEENS5_INS0_19compact_rbtree_nodeIS6_EEEENS5_IKSS_EERKT_T0_ @1032
    _ZN5boost9intrusive6detail15tree_algorithmsINS0_18rbtree_node_traitsINS_12interprocess10offset_ptrIvEELb1EEEE11replace_ownENS5_INS0_19compact_rbtree_nodeIS6_EEEESB_SB_ @1033
    _ZN5boost9intrusive6detail15tree_algorithmsINS0_18rbtree_node_traitsINS_12interprocess10offset_ptrIvEELb1EEEE11rotate_leftENS5_INS0_19compact_rbtree_nodeIS6_EEEESB_ @1034
    _ZN5boost9intrusive6detail15tree_algorithmsINS0_18rbtree_node_traitsINS_12interprocess10offset_ptrIvEELb1EEEE12insert_equalINS1_16key_nodeptr_compISt4lessINS4_15rbtree_best_fitINS4_12mutex_familyES6_Lj0EE10block_ctrlEENS0_11rbtree_implINS0_6setoptINS1_16base_hook_traitsISF_S7_LNS0_14link_mode_typeE0ENS0_11default_tagELi3EEESG_jLb1EEEEEEEEENS5_INS0_19compact_rbtree_nodeIS6_EEEESS_SS_SS_T_Pj @1035
    _ZN5boost9intrusive6detail15tree_algorithmsINS0_18rbtree_node_traitsINS_12interprocess10offset_ptrIvEELb1EEEE12replace_nodeENS5_INS0_19compact_rbtree_nodeIS6_EEEESB_SB_ @1036
    _ZN5boost9intrusive6detail15tree_algorithmsINS0_18rbtree_node_traitsINS_12interprocess10offset_ptrIvEELb1EEEE12rotate_rightENS5_INS0_19compact_rbtree_nodeIS6_EEEESB_ @1037
    _ZN5boost9intrusive6detail15tree_algorithmsINS0_18rbtree_node_traitsINS_12interprocess10offset_ptrIvEELb1EEEE13is_left_childENS5_INS0_19compact_rbtree_nodeIS6_EEEE @1038
    _ZN5boost9intrusive6detail15tree_algorithmsINS0_18rbtree_node_traitsINS_12interprocess10offset_ptrIvEELb1EEEE15dispose_subtreeINS1_13node_disposerINS1_13null_disposerENS0_11rbtree_implINS0_6setoptINS1_16base_hook_traitsINS4_6detail25intrusive_value_type_implINS1_12generic_hookINS0_17get_set_node_algoIS6_Lb1EEENS0_11default_tagELNS0_14link_mode_typeE1ELi3EEEcEES7_LSL_1ESK_Li3EEESt4lessISN_EjLb1EEEEEEEEEvNS5_INS0_19compact_rbtree_nodeIS6_EEEET_ @1039
    _ZN5boost9intrusive6detail15tree_algorithmsINS0_18rbtree_node_traitsINS_12interprocess10offset_ptrIvEELb1EEEE15dispose_subtreeINS1_13node_disposerINS_22interprocess_container17containers_detail37allocator_destroyer_and_chain_builderINS4_9allocatorINSC_11rbtree_nodeISt4pairIKi16ShPendingCommandES6_EENS4_15segment_managerIcNS4_15rbtree_best_fitINS4_12mutex_familyES6_Lj0EEENS4_10iset_indexEEEEEEENS0_11rbtree_implINS0_6setoptINS1_16base_hook_traitsISK_S7_LNS0_14link_mode_typeE0ENS0_11default_tagELi3EEENSC_12node_compareINSC_18value_compare_implIiSJ_St4lessIiENSC_9select1stISJ_EEEESK_EEjLb1EEEEEEEEEvNS5_INS0_19compact_rbtree_nodeIS6_EEEET_ @1040
    _ZN5boost9intrusive6detail15tree_algorithmsINS0_18rbtree_node_traitsINS_12interprocess10offset_ptrIvEELb1EEEE15dispose_subtreeINS1_13node_disposerINS_22interprocess_container17containers_detail37allocator_destroyer_and_chain_builderINS4_9allocatorINSC_11rbtree_nodeISt4pairIKi6ShUnitES6_EENS4_15segment_managerIcNS4_15rbtree_best_fitINS4_12mutex_familyES6_Lj0EEENS4_10iset_indexEEEEEEENS0_11rbtree_implINS0_6setoptINS1_16base_hook_traitsISK_S7_LNS0_14link_mode_typeE0ENS0_11default_tagELi3EEENSC_12node_compareINSC_18value_compare_implIiSJ_St4lessIiENSC_9select1stISJ_EEEESK_EEjLb1EEEEEEEEEvNS5_INS0_19compact_rbtree_nodeIS6_EEEET_ @1041
    _ZN5boost9intrusive6detail15tree_algorithmsINS0_18rbtree_node_traitsINS_12interprocess10offset_ptrIvEELb1EEEE17clear_and_disposeINS1_13node_disposerINS1_13null_disposerENS0_11rbtree_implINS0_6setoptINS1_16base_hook_traitsINS4_6detail25intrusive_value_type_implINS1_12generic_hookINS0_17get_set_node_algoIS6_Lb1EEENS0_11default_tagELNS0_14link_mode_typeE1ELi3EEEcEES7_LSL_1ESK_Li3EEESt4lessISN_EjLb1EEEEEEEEEvNS5_INS0_19compact_rbtree_nodeIS6_EEEET_ @1042
    _ZN5boost9intrusive6detail15tree_algorithmsINS0_18rbtree_node_traitsINS_12interprocess10offset_ptrIvEELb1EEEE17clear_and_disposeINS1_13node_disposerINS_22interprocess_container17containers_detail37allocator_destroyer_and_chain_builderINS4_9allocatorINSC_11rbtree_nodeISt4pairIKi16ShPendingCommandES6_EENS4_15segment_managerIcNS4_15rbtree_best_fitINS4_12mutex_familyES6_Lj0EEENS4_10iset_indexEEEEEEENS0_11rbtree_implINS0_6setoptINS1_16base_hook_traitsISK_S7_LNS0_14link_mode_typeE0ENS0_11default_tagELi3EEENSC_12node_compareINSC_18value_compare_implIiSJ_St4lessIiENSC_9select1stISJ_EEEESK_EEjLb1EEEEEEEEEvNS5_INS0_19compact_rbtree_nodeIS6_EEEET_ @1043
    _ZN5boost9intrusive6detail15tree_algorithmsINS0_18rbtree_node_traitsINS_12interprocess10offset_ptrIvEELb1EEEE17clear_and_disposeINS1_13node_disposerINS_22interprocess_container17containers_detail37allocator_destroyer_and_chain_builderINS4_9allocatorINSC_11rbtree_nodeISt4pairIKi6ShUnitES6_EENS4_15segment_managerIcNS4_15rbtree_best_fitINS4_12mutex_familyES6_Lj0EEENS4_10iset_indexEEEEEEENS0_11rbtree_implINS0_6setoptINS1_16base_hook_traitsISK_S7_LNS0_14link_mode_typeE0ENS0_11default_tagELi3EEENSC_12node_compareINSC_18value_compare_implIiSJ_St4lessIiENSC_9select1stISJ_EEEESK_EEjLb1EEEEEEEEEvNS5_INS0_19compact_rbtree_nodeIS6_EEEET_ @1044
    _ZN5boost9intrusive6detail15tree_algorithmsINS0_18rbtree_node_traitsINS_12interprocess10offset_ptrIvEELb1EEEE18data_for_rebalanceC1Ev @1045
    _ZN5boost9intrusive6detail15tree_algorithmsINS0_18rbtree_node_traitsINS_12interprocess10offset_ptrIvEELb1EEEE18insert_commit_dataC1Ev @1046
    _ZN5boost9intrusive6detail15tree_algorithmsINS0_18rbtree_node_traitsINS_12interprocess10offset_ptrIvEELb1EEEE18insert_equal_checkINS1_16key_nodeptr_compISt4lessINS4_15rbtree_best_fitINS4_12mutex_familyES6_Lj0EE10block_ctrlEENS0_11rbtree_implINS0_6setoptINS1_16base_hook_traitsISF_S7_LNS0_14link_mode_typeE0ENS0_11default_tagELi3EEESG_jLb1EEEEEEEEEvNS5_INS0_19compact_rbtree_nodeIS6_EEEESS_SS_T_RNS8_18insert_commit_dataEPj @1047
    _ZN5boost9intrusive6detail15tree_algorithmsINS0_18rbtree_node_traitsINS_12interprocess10offset_ptrIvEELb1EEEE19insert_unique_checkINS4_6detail21intrusive_compare_keyIcEENS1_16key_nodeptr_compINS4_10iset_indexINSA_12index_configIcNS4_15rbtree_best_fitINS4_12mutex_familyES6_Lj0EEEEEE24intrusive_key_value_lessENS0_11rbtree_implINS0_6setoptINS1_16base_hook_traitsINSA_25intrusive_value_type_implINS1_12generic_hookINS0_17get_set_node_algoIS6_Lb1EEENS0_11default_tagELNS0_14link_mode_typeE1ELi3EEEcEES7_LSU_1EST_Li3EEESt4lessISW_EjLb1EEEEEEEEESt4pairINS5_INS0_19compact_rbtree_nodeIS6_EEEEbENS5_IKS15_EERKT_T0_RNS8_18insert_commit_dataEPj @1048
    _ZN5boost9intrusive6detail15tree_algorithmsINS0_18rbtree_node_traitsINS_12interprocess10offset_ptrIvEELb1EEEE19insert_unique_checkIiNS1_16key_nodeptr_compINS_22interprocess_container17containers_detail6rbtreeIiSt4pairIKi16ShPendingCommandENSC_9select1stISH_EESt4lessIiENS4_9allocatorISH_NS4_15segment_managerIcNS4_15rbtree_best_fitINS4_12mutex_familyES6_Lj0EEENS4_10iset_indexEEEEEE16key_node_compareINSC_18value_compare_implIiSH_SL_SJ_EEEENS0_11rbtree_implINS0_6setoptINS1_16base_hook_traitsINSC_11rbtree_nodeISH_S6_EES7_LNS0_14link_mode_typeE0ENS0_11default_tagELi3EEENSC_12node_compareISX_S13_EEjLb1EEEEEEEEESE_INS5_INS0_19compact_rbtree_nodeIS6_EEEEbENS5_IKS1D_EERKT_T0_RNS8_18insert_commit_dataEPj @1049
    _ZN5boost9intrusive6detail15tree_algorithmsINS0_18rbtree_node_traitsINS_12interprocess10offset_ptrIvEELb1EEEE19insert_unique_checkIiNS1_16key_nodeptr_compINS_22interprocess_container17containers_detail6rbtreeIiSt4pairIKi16ShPendingCommandENSC_9select1stISH_EESt4lessIiENS4_9allocatorISH_NS4_15segment_managerIcNS4_15rbtree_best_fitINS4_12mutex_familyES6_Lj0EEENS4_10iset_indexEEEEEE16key_node_compareINSC_18value_compare_implIiSH_SL_SJ_EEEENS0_11rbtree_implINS0_6setoptINS1_16base_hook_traitsINSC_11rbtree_nodeISH_S6_EES7_LNS0_14link_mode_typeE0ENS0_11default_tagELi3EEENSC_12node_compareISX_S13_EEjLb1EEEEEEEEESE_INS5_INS0_19compact_rbtree_nodeIS6_EEEEbENS5_IKS1D_EES1E_RKT_T0_RNS8_18insert_commit_dataEPj @1050
    _ZN5boost9intrusive6detail15tree_algorithmsINS0_18rbtree_node_traitsINS_12interprocess10offset_ptrIvEELb1EEEE20insert_unique_commitENS5_INS0_19compact_rbtree_nodeIS6_EEEESB_RKNS8_18insert_commit_dataE @1051
    _ZN5boost9intrusive6detail15tree_algorithmsINS0_18rbtree_node_traitsINS_12interprocess10offset_ptrIvEELb1EEEE23insert_equal_check_implINS1_16key_nodeptr_compISt4lessINS4_15rbtree_best_fitINS4_12mutex_familyES6_Lj0EE10block_ctrlEENS0_11rbtree_implINS0_6setoptINS1_16base_hook_traitsISF_S7_LNS0_14link_mode_typeE0ENS0_11default_tagELi3EEESG_jLb1EEEEEEEEEvbNS5_INS0_19compact_rbtree_nodeIS6_EEEESS_T_RNS8_18insert_commit_dataEPj @1052
    _ZN5boost9intrusive6detail15tree_algorithmsINS0_18rbtree_node_traitsINS_12interprocess10offset_ptrIvEELb1EEEE24insert_equal_upper_boundINS1_16key_nodeptr_compISt4lessINS4_15rbtree_best_fitINS4_12mutex_familyES6_Lj0EE10block_ctrlEENS0_11rbtree_implINS0_6setoptINS1_16base_hook_traitsISF_S7_LNS0_14link_mode_typeE0ENS0_11default_tagELi3EEESG_jLb1EEEEEEEEENS5_INS0_19compact_rbtree_nodeIS6_EEEESS_SS_T_Pj @1053
    _ZN5boost9intrusive6detail15tree_algorithmsINS0_18rbtree_node_traitsINS_12interprocess10offset_ptrIvEELb1EEEE30insert_equal_lower_bound_checkINS1_16key_nodeptr_compISt4lessINS4_15rbtree_best_fitINS4_12mutex_familyES6_Lj0EE10block_ctrlEENS0_11rbtree_implINS0_6setoptINS1_16base_hook_traitsISF_S7_LNS0_14link_mode_typeE0ENS0_11default_tagELi3EEESG_jLb1EEEEEEEEEvNS5_INS0_19compact_rbtree_nodeIS6_EEEESS_T_RNS8_18insert_commit_dataEPj @1054
    _ZN5boost9intrusive6detail15tree_algorithmsINS0_18rbtree_node_traitsINS_12interprocess10offset_ptrIvEELb1EEEE30insert_equal_upper_bound_checkINS1_16key_nodeptr_compISt4lessINS4_15rbtree_best_fitINS4_12mutex_familyES6_Lj0EE10block_ctrlEENS0_11rbtree_implINS0_6setoptINS1_16base_hook_traitsISF_S7_LNS0_14link_mode_typeE0ENS0_11default_tagELi3EEESG_jLb1EEEEEEEEEvNS5_INS0_19compact_rbtree_nodeIS6_EEEESS_T_RNS8_18insert_commit_dataEPj @1055
    _ZN5boost9intrusive6detail15tree_algorithmsINS0_18rbtree_node_traitsINS_12interprocess10offset_ptrIvEELb1EEEE4findINS4_6detail21intrusive_compare_keyIcEENS1_16key_nodeptr_compINS4_10iset_indexINSA_12index_configIcNS4_15rbtree_best_fitINS4_12mutex_familyES6_Lj0EEEEEE24intrusive_key_value_lessENS0_11rbtree_implINS0_6setoptINS1_16base_hook_traitsINSA_25intrusive_value_type_implINS1_12generic_hookINS0_17get_set_node_algoIS6_Lb1EEENS0_11default_tagELNS0_14link_mode_typeE1ELi3EEEcEES7_LSU_1EST_Li3EEESt4lessISW_EjLb1EEEEEEEEENS5_INS0_19compact_rbtree_nodeIS6_EEEENS5_IKS14_EERKT_T0_ @1056
    _ZN5boost9intrusive6detail15tree_algorithmsINS0_18rbtree_node_traitsINS_12interprocess10offset_ptrIvEELb1EEEE4findIiNS1_16key_nodeptr_compINS_22interprocess_container17containers_detail6rbtreeIiSt4pairIKi6ShUnitENSC_9select1stISH_EESt4lessIiENS4_9allocatorISH_NS4_15segment_managerIcNS4_15rbtree_best_fitINS4_12mutex_familyES6_Lj0EEENS4_10iset_indexEEEEEE16key_node_compareINSC_18value_compare_implIiSH_SL_SJ_EEEENS0_11rbtree_implINS0_6setoptINS1_16base_hook_traitsINSC_11rbtree_nodeISH_S6_EES7_LNS0_14link_mode_typeE0ENS0_11default_tagELi3EEENSC_12node_compareISX_S13_EEjLb1EEEEEEEEENS5_INS0_19compact_rbtree_nodeIS6_EEEENS5_IKS1D_EERKT_T0_ @1057
    _ZN5boost9intrusive6detail15tree_algorithmsINS0_18rbtree_node_traitsINS_12interprocess10offset_ptrIvEELb1EEEE4initENS5_INS0_19compact_rbtree_nodeIS6_EEEE @1058
    _ZN5boost9intrusive6detail15tree_algorithmsINS0_18rbtree_node_traitsINS_12interprocess10offset_ptrIvEELb1EEEE4linkENS5_INS0_19compact_rbtree_nodeIS6_EEEESB_SB_b @1059
    _ZN5boost9intrusive6detail15tree_algorithmsINS0_18rbtree_node_traitsINS_12interprocess10offset_ptrIvEELb1EEEE5depthENS5_IKNS0_19compact_rbtree_nodeIS6_EEEE @1060
    _ZN5boost9intrusive6detail15tree_algorithmsINS0_18rbtree_node_traitsINS_12interprocess10offset_ptrIvEELb1EEEE5eraseINS0_17rbtree_algorithmsIS7_E18rbtree_erase_fixupEEEvNS5_INS0_19compact_rbtree_nodeIS6_EEEESF_T_RNS8_18data_for_rebalanceE @1061
    _ZN5boost9intrusive6detail15tree_algorithmsINS0_18rbtree_node_traitsINS_12interprocess10offset_ptrIvEELb1EEEE6uncastENS5_IKNS0_19compact_rbtree_nodeIS6_EEEE @1062
    _ZN5boost9intrusive6detail15tree_algorithmsINS0_18rbtree_node_traitsINS_12interprocess10offset_ptrIvEELb1EEEE6uniqueENS5_IKNS0_19compact_rbtree_nodeIS6_EEEE @1063
    _ZN5boost9intrusive6detail15tree_algorithmsINS0_18rbtree_node_traitsINS_12interprocess10offset_ptrIvEELb1EEEE7maximumENS5_INS0_19compact_rbtree_nodeIS6_EEEE @1064
    _ZN5boost9intrusive6detail15tree_algorithmsINS0_18rbtree_node_traitsINS_12interprocess10offset_ptrIvEELb1EEEE7minimumENS5_INS0_19compact_rbtree_nodeIS6_EEEE @1065
    _ZN5boost9intrusive6detail15tree_algorithmsINS0_18rbtree_node_traitsINS_12interprocess10offset_ptrIvEELb1EEEE9is_headerENS5_IKNS0_19compact_rbtree_nodeIS6_EEEE @1066
    _ZN5boost9intrusive6detail15tree_algorithmsINS0_18rbtree_node_traitsINS_12interprocess10offset_ptrIvEELb1EEEE9next_nodeENS5_INS0_19compact_rbtree_nodeIS6_EEEE @1067
    _ZN5boost9intrusive6detail15tree_algorithmsINS0_18rbtree_node_traitsINS_12interprocess10offset_ptrIvEELb1EEEE9prev_nodeENS5_INS0_19compact_rbtree_nodeIS6_EEEE @1068
    _ZN5boost9intrusive6detail16base_hook_traitsINS_12interprocess15rbtree_best_fitINS3_12mutex_familyENS3_10offset_ptrIvEELj0EE10block_ctrlENS0_18rbtree_node_traitsIS7_Lb1EEELNS0_14link_mode_typeE0ENS0_11default_tagELi3EE11to_node_ptrERS9_ @1069
    _ZN5boost9intrusive6detail16base_hook_traitsINS_12interprocess15rbtree_best_fitINS3_12mutex_familyENS3_10offset_ptrIvEELj0EE10block_ctrlENS0_18rbtree_node_traitsIS7_Lb1EEELNS0_14link_mode_typeE0ENS0_11default_tagELi3EE12to_value_ptrENS6_IKNS0_19compact_rbtree_nodeIS7_EEEE @1070
    _ZN5boost9intrusive6detail16base_hook_traitsINS_12interprocess15rbtree_best_fitINS3_12mutex_familyENS3_10offset_ptrIvEELj0EE10block_ctrlENS0_18rbtree_node_traitsIS7_Lb1EEELNS0_14link_mode_typeE0ENS0_11default_tagELi3EE12to_value_ptrENS6_INS0_19compact_rbtree_nodeIS7_EEEE @1071
    _ZN5boost9intrusive6detail16base_hook_traitsINS_12interprocess6detail25intrusive_value_type_implINS1_12generic_hookINS0_17get_set_node_algoINS3_10offset_ptrIvEELb1EEENS0_11default_tagELNS0_14link_mode_typeE1ELi3EEEcEENS0_18rbtree_node_traitsIS9_Lb1EEELSC_1ESB_Li3EE11to_node_ptrERSE_ @1072
    _ZN5boost9intrusive6detail16base_hook_traitsINS_12interprocess6detail25intrusive_value_type_implINS1_12generic_hookINS0_17get_set_node_algoINS3_10offset_ptrIvEELb1EEENS0_11default_tagELNS0_14link_mode_typeE1ELi3EEEcEENS0_18rbtree_node_traitsIS9_Lb1EEELSC_1ESB_Li3EE12to_value_ptrENS8_IKNS0_19compact_rbtree_nodeIS9_EEEE @1073
    _ZN5boost9intrusive6detail16base_hook_traitsINS_12interprocess6detail25intrusive_value_type_implINS1_12generic_hookINS0_17get_set_node_algoINS3_10offset_ptrIvEELb1EEENS0_11default_tagELNS0_14link_mode_typeE1ELi3EEEcEENS0_18rbtree_node_traitsIS9_Lb1EEELSC_1ESB_Li3EE12to_value_ptrENS8_INS0_19compact_rbtree_nodeIS9_EEEE @1074
    _ZN5boost9intrusive6detail16base_hook_traitsINS_22interprocess_container17containers_detail11rbtree_nodeISt4pairIKi16ShPendingCommandENS_12interprocess10offset_ptrIvEEEENS0_18rbtree_node_traitsISC_Lb1EEELNS0_14link_mode_typeE0ENS0_11default_tagELi3EE11to_node_ptrERSD_ @1075
    _ZN5boost9intrusive6detail16base_hook_traitsINS_22interprocess_container17containers_detail11rbtree_nodeISt4pairIKi16ShPendingCommandENS_12interprocess10offset_ptrIvEEEENS0_18rbtree_node_traitsISC_Lb1EEELNS0_14link_mode_typeE0ENS0_11default_tagELi3EE12to_value_ptrENSB_IKNS0_19compact_rbtree_nodeISC_EEEE @1076
    _ZN5boost9intrusive6detail16base_hook_traitsINS_22interprocess_container17containers_detail11rbtree_nodeISt4pairIKi16ShPendingCommandENS_12interprocess10offset_ptrIvEEEENS0_18rbtree_node_traitsISC_Lb1EEELNS0_14link_mode_typeE0ENS0_11default_tagELi3EE12to_value_ptrENSB_INS0_19compact_rbtree_nodeISC_EEEE @1077
    _ZN5boost9intrusive6detail16base_hook_traitsINS_22interprocess_container17containers_detail11rbtree_nodeISt4pairIKi6ShUnitENS_12interprocess10offset_ptrIvEEEENS0_18rbtree_node_traitsISC_Lb1EEELNS0_14link_mode_typeE0ENS0_11default_tagELi3EE12to_value_ptrENSB_IKNS0_19compact_rbtree_nodeISC_EEEE @1078
    _ZN5boost9intrusive6detail16base_hook_traitsINS_22interprocess_container17containers_detail11rbtree_nodeISt4pairIKi6ShUnitENS_12interprocess10offset_ptrIvEEEENS0_18rbtree_node_traitsISC_Lb1EEELNS0_14link_mode_typeE0ENS0_11default_tagELi3EE12to_value_ptrENSB_INS0_19compact_rbtree_nodeISC_EEEE @1079
    _ZN5boost9intrusive6detail16key_nodeptr_compINS_12interprocess10iset_indexINS3_6detail12index_configIcNS3_15rbtree_best_fitINS3_12mutex_familyENS3_10offset_ptrIvEELj0EEEEEE24intrusive_key_value_lessENS0_11rbtree_implINS0_6setoptINS1_16base_hook_traitsINS5_25intrusive_value_type_implINS1_12generic_hookINS0_17get_set_node_algoISA_Lb1EEENS0_11default_tagELNS0_14link_mode_typeE1ELi3EEEcEENS0_18rbtree_node_traitsISA_Lb1EEELSN_1ESM_Li3EEESt4lessISP_EjLb1EEEEEEC1ESE_PKSW_ @1080
    _ZN5boost9intrusive6detail16key_nodeptr_compINS_12interprocess15rbtree_best_fitINS3_12mutex_familyENS3_10offset_ptrIvEELj0EE23size_block_ctrl_compareENS0_11rbtree_implINS0_6setoptINS1_16base_hook_traitsINS8_10block_ctrlENS0_18rbtree_node_traitsIS7_Lb1EEELNS0_14link_mode_typeE0ENS0_11default_tagELi3EEESt4lessISD_EjLb1EEEEEEC1ES9_PKSM_ @1081
    _ZN5boost9intrusive6detail16key_nodeptr_compINS_22interprocess_container17containers_detail6rbtreeIiSt4pairIKi16ShPendingCommandENS4_9select1stIS9_EESt4lessIiENS_12interprocess9allocatorIS9_NSE_15segment_managerIcNSE_15rbtree_best_fitINSE_12mutex_familyENSE_10offset_ptrIvEELj0EEENSE_10iset_indexEEEEEE16key_node_compareINS4_18value_compare_implIiS9_SD_SB_EEEENS0_11rbtree_implINS0_6setoptINS1_16base_hook_traitsINS4_11rbtree_nodeIS9_SK_EENS0_18rbtree_node_traitsISK_Lb1EEELNS0_14link_mode_typeE0ENS0_11default_tagELi3EEENS4_12node_compareISS_SY_EEjLb1EEEEEEC1EST_PKS17_ @1082
    _ZN5boost9intrusive6detail16key_nodeptr_compINS_22interprocess_container17containers_detail6rbtreeIiSt4pairIKi6ShUnitENS4_9select1stIS9_EESt4lessIiENS_12interprocess9allocatorIS9_NSE_15segment_managerIcNSE_15rbtree_best_fitINSE_12mutex_familyENSE_10offset_ptrIvEELj0EEENSE_10iset_indexEEEEEE16key_node_compareINS4_18value_compare_implIiS9_SD_SB_EEEENS0_11rbtree_implINS0_6setoptINS1_16base_hook_traitsINS4_11rbtree_nodeIS9_SK_EENS0_18rbtree_node_traitsISK_Lb1EEELNS0_14link_mode_typeE0ENS0_11default_tagELi3EEENS4_12node_compareISS_SY_EEjLb1EEEEEEC1EST_PKS17_ @1083
    _ZN5boost9intrusive6detail16key_nodeptr_compISt4lessINS_12interprocess15rbtree_best_fitINS4_12mutex_familyENS4_10offset_ptrIvEELj0EE10block_ctrlEENS0_11rbtree_implINS0_6setoptINS1_16base_hook_traitsISA_NS0_18rbtree_node_traitsIS8_Lb1EEELNS0_14link_mode_typeE0ENS0_11default_tagELi3EEESB_jLb1EEEEEEC1ESB_PKSL_ @1084
    _ZN5boost9intrusive6detail18ebo_functor_holderINS1_13null_disposerEEC2ERKS3_ @1085
    _ZN5boost9intrusive6detail18ebo_functor_holderINS_12interprocess10iset_indexINS3_6detail12index_configIcNS3_15rbtree_best_fitINS3_12mutex_familyENS3_10offset_ptrIvEELj0EEEEEE24intrusive_key_value_lessEEC2ERKSE_ @1086
    _ZN5boost9intrusive6detail18ebo_functor_holderINS_12interprocess15rbtree_best_fitINS3_12mutex_familyENS3_10offset_ptrIvEELj0EE23size_block_ctrl_compareEEC2ERKS9_ @1087
    _ZN5boost9intrusive6detail18ebo_functor_holderINS_22interprocess_container17containers_detail37allocator_destroyer_and_chain_builderINS_12interprocess9allocatorINS4_11rbtree_nodeISt4pairIKi16ShPendingCommandENS6_10offset_ptrIvEEEENS6_15segment_managerIcNS6_15rbtree_best_fitINS6_12mutex_familyESE_Lj0EEENS6_10iset_indexEEEEEEEEC2ERKSN_ @1088
    _ZN5boost9intrusive6detail18ebo_functor_holderINS_22interprocess_container17containers_detail37allocator_destroyer_and_chain_builderINS_12interprocess9allocatorINS4_11rbtree_nodeISt4pairIKi6ShUnitENS6_10offset_ptrIvEEEENS6_15segment_managerIcNS6_15rbtree_best_fitINS6_12mutex_familyESE_Lj0EEENS6_10iset_indexEEEEEEEEC2ERKSN_ @1089
    _ZN5boost9intrusive6detail18ebo_functor_holderINS_22interprocess_container17containers_detail6rbtreeIiSt4pairIKi16ShPendingCommandENS4_9select1stIS9_EESt4lessIiENS_12interprocess9allocatorIS9_NSE_15segment_managerIcNSE_15rbtree_best_fitINSE_12mutex_familyENSE_10offset_ptrIvEELj0EEENSE_10iset_indexEEEEEE16key_node_compareINS4_18value_compare_implIiS9_SD_SB_EEEEEC2ERKST_ @1090
    _ZN5boost9intrusive6detail18ebo_functor_holderINS_22interprocess_container17containers_detail6rbtreeIiSt4pairIKi6ShUnitENS4_9select1stIS9_EESt4lessIiENS_12interprocess9allocatorIS9_NSE_15segment_managerIcNSE_15rbtree_best_fitINSE_12mutex_familyENSE_10offset_ptrIvEELj0EEENSE_10iset_indexEEEEEE16key_node_compareINS4_18value_compare_implIiS9_SD_SB_EEEEEC2ERKST_ @1091
    _ZN5boost9intrusive6detail18ebo_functor_holderISt4lessINS_12interprocess15rbtree_best_fitINS4_12mutex_familyENS4_10offset_ptrIvEELj0EE10block_ctrlEEEC2ERKSB_ @1092
    _ZN5boost9intrusive6detail18ebo_functor_holderISt4lessINS_12interprocess6detail25intrusive_value_type_implINS1_12generic_hookINS0_17get_set_node_algoINS4_10offset_ptrIvEELb1EEENS0_11default_tagELNS0_14link_mode_typeE1ELi3EEEcEEEEC2ERKSG_ @1093
    _ZN5boost9intrusive6detail23ebo_functor_holder_implINS1_13null_disposerELb0EE3getEv @1094
    _ZN5boost9intrusive6detail23ebo_functor_holder_implINS1_13null_disposerELb0EEC2ERKS3_ @1095
    _ZN5boost9intrusive6detail23ebo_functor_holder_implINS_12interprocess10iset_indexINS3_6detail12index_configIcNS3_15rbtree_best_fitINS3_12mutex_familyENS3_10offset_ptrIvEELj0EEEEEE24intrusive_key_value_lessELb0EEC2ERKSE_ @1096
    _ZN5boost9intrusive6detail23ebo_functor_holder_implINS_12interprocess15rbtree_best_fitINS3_12mutex_familyENS3_10offset_ptrIvEELj0EE23size_block_ctrl_compareELb0EEC2ERKS9_ @1097
    _ZN5boost9intrusive6detail23ebo_functor_holder_implINS_22interprocess_container17containers_detail37allocator_destroyer_and_chain_builderINS_12interprocess9allocatorINS4_11rbtree_nodeISt4pairIKi16ShPendingCommandENS6_10offset_ptrIvEEEENS6_15segment_managerIcNS6_15rbtree_best_fitINS6_12mutex_familyESE_Lj0EEENS6_10iset_indexEEEEEEELb0EE3getEv @1098
    _ZN5boost9intrusive6detail23ebo_functor_holder_implINS_22interprocess_container17containers_detail37allocator_destroyer_and_chain_builderINS_12interprocess9allocatorINS4_11rbtree_nodeISt4pairIKi16ShPendingCommandENS6_10offset_ptrIvEEEENS6_15segment_managerIcNS6_15rbtree_best_fitINS6_12mutex_familyESE_Lj0EEENS6_10iset_indexEEEEEEELb0EEC2ERKSN_ @1099
    _ZN5boost9intrusive6detail23ebo_functor_holder_implINS_22interprocess_container17containers_detail37allocator_destroyer_and_chain_builderINS_12interprocess9allocatorINS4_11rbtree_nodeISt4pairIKi6ShUnitENS6_10offset_ptrIvEEEENS6_15segment_managerIcNS6_15rbtree_best_fitINS6_12mutex_familyESE_Lj0EEENS6_10iset_indexEEEEEEELb0EE3getEv @1100
    _ZN5boost9intrusive6detail23ebo_functor_holder_implINS_22interprocess_container17containers_detail37allocator_destroyer_and_chain_builderINS_12interprocess9allocatorINS4_11rbtree_nodeISt4pairIKi6ShUnitENS6_10offset_ptrIvEEEENS6_15segment_managerIcNS6_15rbtree_best_fitINS6_12mutex_familyESE_Lj0EEENS6_10iset_indexEEEEEEELb0EEC2ERKSN_ @1101
    _ZN5boost9intrusive6detail23ebo_functor_holder_implINS_22interprocess_container17containers_detail6rbtreeIiSt4pairIKi16ShPendingCommandENS4_9select1stIS9_EESt4lessIiENS_12interprocess9allocatorIS9_NSE_15segment_managerIcNSE_15rbtree_best_fitINSE_12mutex_familyENSE_10offset_ptrIvEELj0EEENSE_10iset_indexEEEEEE16key_node_compareINS4_18value_compare_implIiS9_SD_SB_EEEELb0EEC2ERKST_ @1102
    _ZN5boost9intrusive6detail23ebo_functor_holder_implINS_22interprocess_container17containers_detail6rbtreeIiSt4pairIKi6ShUnitENS4_9select1stIS9_EESt4lessIiENS_12interprocess9allocatorIS9_NSE_15segment_managerIcNSE_15rbtree_best_fitINSE_12mutex_familyENSE_10offset_ptrIvEELj0EEENSE_10iset_indexEEEEEE16key_node_compareINS4_18value_compare_implIiS9_SD_SB_EEEELb0EEC2ERKST_ @1103
    _ZN5boost9intrusive6detail23ebo_functor_holder_implISt4lessINS_12interprocess15rbtree_best_fitINS4_12mutex_familyENS4_10offset_ptrIvEELj0EE10block_ctrlEELb0EE3getEv @1104
    _ZN5boost9intrusive6detail23ebo_functor_holder_implISt4lessINS_12interprocess15rbtree_best_fitINS4_12mutex_familyENS4_10offset_ptrIvEELj0EE10block_ctrlEELb0EEC2ERKSB_ @1105
    _ZN5boost9intrusive6detail23ebo_functor_holder_implISt4lessINS_12interprocess6detail25intrusive_value_type_implINS1_12generic_hookINS0_17get_set_node_algoINS4_10offset_ptrIvEELb1EEENS0_11default_tagELNS0_14link_mode_typeE1ELi3EEEcEEELb0EEC2ERKSG_ @1106
    _ZN5boost9intrusive6detail24clear_on_destructor_baseINS0_11rbtree_implINS0_6setoptINS1_16base_hook_traitsINS_12interprocess15rbtree_best_fitINS6_12mutex_familyENS6_10offset_ptrIvEELj0EE10block_ctrlENS0_18rbtree_node_traitsISA_Lb1EEELNS0_14link_mode_typeE0ENS0_11default_tagELi3EEESt4lessISC_EjLb1EEEEEEC2Ev @1107
    _ZN5boost9intrusive6detail24clear_on_destructor_baseINS0_11rbtree_implINS0_6setoptINS1_16base_hook_traitsINS_12interprocess15rbtree_best_fitINS6_12mutex_familyENS6_10offset_ptrIvEELj0EE10block_ctrlENS0_18rbtree_node_traitsISA_Lb1EEELNS0_14link_mode_typeE0ENS0_11default_tagELi3EEESt4lessISC_EjLb1EEEEEED2Ev @1108
    _ZN5boost9intrusive6detail24clear_on_destructor_baseINS0_11rbtree_implINS0_6setoptINS1_16base_hook_traitsINS_12interprocess6detail25intrusive_value_type_implINS1_12generic_hookINS0_17get_set_node_algoINS6_10offset_ptrIvEELb1EEENS0_11default_tagELNS0_14link_mode_typeE1ELi3EEEcEENS0_18rbtree_node_traitsISC_Lb1EEELSF_1ESE_Li3EEESt4lessISH_EjLb1EEEEEEC2Ev @1109
    _ZN5boost9intrusive6detail24clear_on_destructor_baseINS0_11rbtree_implINS0_6setoptINS1_16base_hook_traitsINS_12interprocess6detail25intrusive_value_type_implINS1_12generic_hookINS0_17get_set_node_algoINS6_10offset_ptrIvEELb1EEENS0_11default_tagELNS0_14link_mode_typeE1ELi3EEEcEENS0_18rbtree_node_traitsISC_Lb1EEELSF_1ESE_Li3EEESt4lessISH_EjLb1EEEEEED2Ev @1110
    _ZN5boost9intrusive6detail24clear_on_destructor_baseINS0_11rbtree_implINS0_6setoptINS1_16base_hook_traitsINS_22interprocess_container17containers_detail11rbtree_nodeISt4pairIKi16ShPendingCommandENS_12interprocess10offset_ptrIvEEEENS0_18rbtree_node_traitsISF_Lb1EEELNS0_14link_mode_typeE0ENS0_11default_tagELi3EEENS7_12node_compareINS7_18value_compare_implIiSC_St4lessIiENS7_9select1stISC_EEEESG_EEjLb1EEEEEED2Ev @1111
    _ZN5boost9intrusive6detail24clear_on_destructor_baseINS0_11rbtree_implINS0_6setoptINS1_16base_hook_traitsINS_22interprocess_container17containers_detail11rbtree_nodeISt4pairIKi6ShUnitENS_12interprocess10offset_ptrIvEEEENS0_18rbtree_node_traitsISF_Lb1EEELNS0_14link_mode_typeE0ENS0_11default_tagELi3EEENS7_12node_compareINS7_18value_compare_implIiSC_St4lessIiENS7_9select1stISC_EEEESG_EEjLb1EEEEEED2Ev @1112
    _ZN5boost9intrusive8set_implINS0_6setoptINS0_6detail16base_hook_traitsINS_12interprocess6detail25intrusive_value_type_implINS3_12generic_hookINS0_17get_set_node_algoINS5_10offset_ptrIvEELb1EEENS0_11default_tagELNS0_14link_mode_typeE1ELi3EEEcEENS0_18rbtree_node_traitsISB_Lb1EEELSE_1ESD_Li3EEESt4lessISG_EjLb1EEEE12insert_checkINS6_21intrusive_compare_keyIcEENS5_10iset_indexINS6_12index_configIcNS5_15rbtree_best_fitINS5_12mutex_familyESB_Lj0EEEEEE24intrusive_key_value_lessEEESt4pairINS0_13tree_iteratorINS0_11rbtree_implISM_EELb0EEEbERKT_T0_RNS3_15tree_algorithmsISI_E18insert_commit_dataE @1113
    _ZN5boost9intrusive8set_implINS0_6setoptINS0_6detail16base_hook_traitsINS_12interprocess6detail25intrusive_value_type_implINS3_12generic_hookINS0_17get_set_node_algoINS5_10offset_ptrIvEELb1EEENS0_11default_tagELNS0_14link_mode_typeE1ELi3EEEcEENS0_18rbtree_node_traitsISB_Lb1EEELSE_1ESD_Li3EEESt4lessISG_EjLb1EEEE13insert_commitERSG_RKNS3_15tree_algorithmsISI_E18insert_commit_dataE @1114
    _ZN5boost9intrusive8set_implINS0_6setoptINS0_6detail16base_hook_traitsINS_12interprocess6detail25intrusive_value_type_implINS3_12generic_hookINS0_17get_set_node_algoINS5_10offset_ptrIvEELb1EEENS0_11default_tagELNS0_14link_mode_typeE1ELi3EEEcEENS0_18rbtree_node_traitsISB_Lb1EEELSE_1ESD_Li3EEESt4lessISG_EjLb1EEEE3endEv @1115
    _ZN5boost9intrusive8set_implINS0_6setoptINS0_6detail16base_hook_traitsINS_12interprocess6detail25intrusive_value_type_implINS3_12generic_hookINS0_17get_set_node_algoINS5_10offset_ptrIvEELb1EEENS0_11default_tagELNS0_14link_mode_typeE1ELi3EEEcEENS0_18rbtree_node_traitsISB_Lb1EEELSE_1ESD_Li3EEESt4lessISG_EjLb1EEEE4findINS6_21intrusive_compare_keyIcEENS5_10iset_indexINS6_12index_configIcNS5_15rbtree_best_fitINS5_12mutex_familyESB_Lj0EEEEEE24intrusive_key_value_lessEEENS0_13tree_iteratorINS0_11rbtree_implISM_EELb0EEERKT_T0_ @1116
    _ZN5boost9intrusive8set_implINS0_6setoptINS0_6detail16base_hook_traitsINS_12interprocess6detail25intrusive_value_type_implINS3_12generic_hookINS0_17get_set_node_algoINS5_10offset_ptrIvEELb1EEENS0_11default_tagELNS0_14link_mode_typeE1ELi3EEEcEENS0_18rbtree_node_traitsISB_Lb1EEELSE_1ESD_Li3EEESt4lessISG_EjLb1EEEE5eraseENS0_13tree_iteratorINS0_11rbtree_implISM_EELb1EEE @1117
    _ZN5boost9intrusive8set_implINS0_6setoptINS0_6detail16base_hook_traitsINS_12interprocess6detail25intrusive_value_type_implINS3_12generic_hookINS0_17get_set_node_algoINS5_10offset_ptrIvEELb1EEENS0_11default_tagELNS0_14link_mode_typeE1ELi3EEEcEENS0_18rbtree_node_traitsISB_Lb1EEELSE_1ESD_Li3EEESt4lessISG_EjLb1EEEEC2ERKSL_RKSJ_ @1118
    _ZN5boost9intrusive8set_implINS0_6setoptINS0_6detail16base_hook_traitsINS_12interprocess6detail25intrusive_value_type_implINS3_12generic_hookINS0_17get_set_node_algoINS5_10offset_ptrIvEELb1EEENS0_11default_tagELNS0_14link_mode_typeE1ELi3EEEcEENS0_18rbtree_node_traitsISB_Lb1EEELSE_1ESD_Li3EEESt4lessISG_EjLb1EEEED2Ev @1119
    _ZN9ShCommandC1Ev @1120
    _ZN9__gnu_cxx13new_allocatorIfE10deallocateEPfj @1121
    _ZN9__gnu_cxx13new_allocatorIfE8allocateEjPKv @1122
    _ZN9__gnu_cxx13new_allocatorIfEC2ERKS1_ @1123
    _ZN9__gnu_cxx13new_allocatorIfEC2Ev @1124
    _ZN9__gnu_cxx13new_allocatorIfED2Ev @1125
    _ZN9__gnu_cxx17__normal_iteratorIPKfSt6vectorIfSaIfEEEC1ERKS2_ @1126
    _ZN9__gnu_cxx17__normal_iteratorIPKfSt6vectorIfSaIfEEEpLERKi @1127
    _ZN9__gnu_cxxmiIPKfSt6vectorIfSaIfEEEENS_17__normal_iteratorIT_T0_E15difference_typeERKS9_SC_ @1128
    _ZNK5boost10lock_error4whatEv @1129
    _ZNK5boost12interprocess10error_info14get_error_codeEv @1130
    _ZNK5boost12interprocess10error_info16get_native_errorEv @1131
    _ZNK5boost12interprocess10iset_indexINS0_6detail12index_configIcNS0_15rbtree_best_fitINS0_12mutex_familyENS0_10offset_ptrIvEELj0EEEEEE24intrusive_key_value_lessclERKNS2_21intrusive_compare_keyIcEERKNS2_25intrusive_value_type_implINS_9intrusive6detail12generic_hookINSH_17get_set_node_algoIS7_Lb1EEENSH_11default_tagELNSH_14link_mode_typeE1ELi3EEEcEE @1132
    _ZNK5boost12interprocess10iset_indexINS0_6detail12index_configIcNS0_15rbtree_best_fitINS0_12mutex_familyENS0_10offset_ptrIvEELj0EEEEEE24intrusive_key_value_lessclERKNS2_25intrusive_value_type_implINS_9intrusive6detail12generic_hookINSD_17get_set_node_algoIS7_Lb1EEENSD_11default_tagELNSD_14link_mode_typeE1ELi3EEEcEERKNS2_21intrusive_compare_keyIcEE @1133
    _ZNK5boost12interprocess10offset_ptrI6PP_PosE11get_pointerEv @1134
    _ZNK5boost12interprocess10offset_ptrI6PP_PosE3getEv @1135
    _ZNK5boost12interprocess10offset_ptrI6PP_PosEixEi @1136
    _ZNK5boost12interprocess10offset_ptrI9ShCommandE11get_pointerEv @1137
    _ZNK5boost12interprocess10offset_ptrI9ShCommandE3getEv @1138
    _ZNK5boost12interprocess10offset_ptrI9ShCommandEixEi @1139
    _ZNK5boost12interprocess10offset_ptrIKNS0_15rbtree_best_fitINS0_12mutex_familyENS1_IvEELj0EE10block_ctrlEE11get_pointerEv @1140
    _ZNK5boost12interprocess10offset_ptrIKNS0_15rbtree_best_fitINS0_12mutex_familyENS1_IvEELj0EE10block_ctrlEE3getEv @1141
    _ZNK5boost12interprocess10offset_ptrIKNS0_15rbtree_best_fitINS0_12mutex_familyENS1_IvEELj0EE10block_ctrlEEdeEv @1142
    _ZNK5boost12interprocess10offset_ptrIKNS0_6detail25intrusive_value_type_implINS_9intrusive6detail12generic_hookINS4_17get_set_node_algoINS1_IvEELb1EEENS4_11default_tagELNS4_14link_mode_typeE1ELi3EEEcEEE11get_pointerEv @1143
    _ZNK5boost12interprocess10offset_ptrIKNS0_6detail25intrusive_value_type_implINS_9intrusive6detail12generic_hookINS4_17get_set_node_algoINS1_IvEELb1EEENS4_11default_tagELNS4_14link_mode_typeE1ELi3EEEcEEE3getEv @1144
    _ZNK5boost12interprocess10offset_ptrIKNS0_6detail25intrusive_value_type_implINS_9intrusive6detail12generic_hookINS4_17get_set_node_algoINS1_IvEELb1EEENS4_11default_tagELNS4_14link_mode_typeE1ELi3EEEcEEEdeEv @1145
    _ZNK5boost12interprocess10offset_ptrIKNS_22interprocess_container17containers_detail11rbtree_nodeISt4pairIKi16ShPendingCommandENS1_IvEEEEE11get_pointerEv @1146
    _ZNK5boost12interprocess10offset_ptrIKNS_22interprocess_container17containers_detail11rbtree_nodeISt4pairIKi16ShPendingCommandENS1_IvEEEEE3getEv @1147
    _ZNK5boost12interprocess10offset_ptrIKNS_22interprocess_container17containers_detail11rbtree_nodeISt4pairIKi16ShPendingCommandENS1_IvEEEEEdeEv @1148
    _ZNK5boost12interprocess10offset_ptrIKNS_22interprocess_container17containers_detail11rbtree_nodeISt4pairIKi6ShUnitENS1_IvEEEEE11get_pointerEv @1149
    _ZNK5boost12interprocess10offset_ptrIKNS_22interprocess_container17containers_detail11rbtree_nodeISt4pairIKi6ShUnitENS1_IvEEEEE3getEv @1150
    _ZNK5boost12interprocess10offset_ptrIKNS_22interprocess_container17containers_detail11rbtree_nodeISt4pairIKi6ShUnitENS1_IvEEEEEdeEv @1151
    _ZNK5boost12interprocess10offset_ptrIKNS_9intrusive19compact_rbtree_nodeINS1_IvEEEEE11get_pointerEv @1152
    _ZNK5boost12interprocess10offset_ptrIKNS_9intrusive19compact_rbtree_nodeINS1_IvEEEEE3getEv @1153
    _ZNK5boost12interprocess10offset_ptrIKNS_9intrusive19compact_rbtree_nodeINS1_IvEEEEEdeEv @1154
    _ZNK5boost12interprocess10offset_ptrIKNS_9intrusive19compact_rbtree_nodeINS1_IvEEEEEptEv @1155
    _ZNK5boost12interprocess10offset_ptrINS0_15rbtree_best_fitINS0_12mutex_familyENS1_IvEELj0EE10block_ctrlEE11get_pointerEv @1156
    _ZNK5boost12interprocess10offset_ptrINS0_15rbtree_best_fitINS0_12mutex_familyENS1_IvEELj0EE10block_ctrlEE3getEv @1157
    _ZNK5boost12interprocess10offset_ptrINS0_15segment_managerIcNS0_15rbtree_best_fitINS0_12mutex_familyENS1_IvEELj0EEENS0_10iset_indexEEEE11get_pointerEv @1158
    _ZNK5boost12interprocess10offset_ptrINS0_15segment_managerIcNS0_15rbtree_best_fitINS0_12mutex_familyENS1_IvEELj0EEENS0_10iset_indexEEEE3getEv @1159
    _ZNK5boost12interprocess10offset_ptrINS0_15segment_managerIcNS0_15rbtree_best_fitINS0_12mutex_familyENS1_IvEELj0EEENS0_10iset_indexEEEEptEv @1160
    _ZNK5boost12interprocess10offset_ptrINS0_6detail25intrusive_value_type_implINS_9intrusive6detail12generic_hookINS4_17get_set_node_algoINS1_IvEELb1EEENS4_11default_tagELNS4_14link_mode_typeE1ELi3EEEcEEE11get_pointerEv @1161
    _ZNK5boost12interprocess10offset_ptrINS0_6detail25intrusive_value_type_implINS_9intrusive6detail12generic_hookINS4_17get_set_node_algoINS1_IvEELb1EEENS4_11default_tagELNS4_14link_mode_typeE1ELi3EEEcEEE3getEv @1162
    _ZNK5boost12interprocess10offset_ptrINS_22interprocess_container17containers_detail11rbtree_nodeISt4pairIKi16ShPendingCommandENS1_IvEEEEE11get_pointerEv @1163
    _ZNK5boost12interprocess10offset_ptrINS_22interprocess_container17containers_detail11rbtree_nodeISt4pairIKi16ShPendingCommandENS1_IvEEEEE26unspecified_bool_type_funcEv @1164
    _ZNK5boost12interprocess10offset_ptrINS_22interprocess_container17containers_detail11rbtree_nodeISt4pairIKi16ShPendingCommandENS1_IvEEEEE3getEv @1165
    _ZNK5boost12interprocess10offset_ptrINS_22interprocess_container17containers_detail11rbtree_nodeISt4pairIKi16ShPendingCommandENS1_IvEEEEEcvMSB_KFvvEEv @1166
    _ZNK5boost12interprocess10offset_ptrINS_22interprocess_container17containers_detail11rbtree_nodeISt4pairIKi16ShPendingCommandENS1_IvEEEEEdeEv @1167
    _ZNK5boost12interprocess10offset_ptrINS_22interprocess_container17containers_detail11rbtree_nodeISt4pairIKi6ShUnitENS1_IvEEEEE11get_pointerEv @1168
    _ZNK5boost12interprocess10offset_ptrINS_22interprocess_container17containers_detail11rbtree_nodeISt4pairIKi6ShUnitENS1_IvEEEEE3getEv @1169
    _ZNK5boost12interprocess10offset_ptrINS_9intrusive19compact_rbtree_nodeINS1_IvEEEEE11get_pointerEv @1170
    _ZNK5boost12interprocess10offset_ptrINS_9intrusive19compact_rbtree_nodeINS1_IvEEEEE26unspecified_bool_type_funcEv @1171
    _ZNK5boost12interprocess10offset_ptrINS_9intrusive19compact_rbtree_nodeINS1_IvEEEEE3getEv @1172
    _ZNK5boost12interprocess10offset_ptrINS_9intrusive19compact_rbtree_nodeINS1_IvEEEEEcvMS6_KFvvEEv @1173
    _ZNK5boost12interprocess10offset_ptrINS_9intrusive19compact_rbtree_nodeINS1_IvEEEEEdeEv @1174
    _ZNK5boost12interprocess10offset_ptrINS_9intrusive19compact_rbtree_nodeINS1_IvEEEEEntEv @1175
    _ZNK5boost12interprocess10offset_ptrINS_9intrusive19compact_rbtree_nodeINS1_IvEEEEEptEv @1176
    _ZNK5boost12interprocess10offset_ptrISt4pairIKi6ShUnitEE11get_pointerEv @1177
    _ZNK5boost12interprocess10offset_ptrISt4pairIKi6ShUnitEE3getEv @1178
    _ZNK5boost12interprocess10offset_ptrISt4pairIKi6ShUnitEEptEv @1179
    _ZNK5boost12interprocess10offset_ptrIfE11get_pointerEv @1180
    _ZNK5boost12interprocess10offset_ptrIfE26unspecified_bool_type_funcEv @1181
    _ZNK5boost12interprocess10offset_ptrIfE3getEv @1182
    _ZNK5boost12interprocess10offset_ptrIfEcvMS2_KFvvEEv @1183
    _ZNK5boost12interprocess10offset_ptrIfEixEi @1184
    _ZNK5boost12interprocess10offset_ptrIiE11get_pointerEv @1185
    _ZNK5boost12interprocess10offset_ptrIiE3getEv @1186
    _ZNK5boost12interprocess10offset_ptrIiEixEi @1187
    _ZNK5boost12interprocess10offset_ptrIvE11get_pointerEv @1188
    _ZNK5boost12interprocess10offset_ptrIvE26unspecified_bool_type_funcEv @1189
    _ZNK5boost12interprocess10offset_ptrIvE3getEv @1190
    _ZNK5boost12interprocess10offset_ptrIvEcvMS2_KFvvEEv @1191
    _ZNK5boost12interprocess11scoped_lockINS0_28interprocess_recursive_mutexEE4ownsEv @1192
    _ZNK5boost12interprocess13mapped_region11get_addressEv @1193
    _ZNK5boost12interprocess13mapped_region8get_modeEv @1194
    _ZNK5boost12interprocess13mapped_region8get_sizeEv @1195
    _ZNK5boost12interprocess14lock_exception4whatEv @1196
    _ZNK5boost12interprocess15rbtree_best_fitINS0_12mutex_familyENS0_10offset_ptrIvEELj0EE23size_block_ctrl_compareclERKNS5_10block_ctrlEj @1197
    _ZNK5boost12interprocess15rbtree_best_fitINS0_12mutex_familyENS0_10offset_ptrIvEELj0EE4sizeEPKv @1198
    _ZNK5boost12interprocess15rbtree_best_fitINS0_12mutex_familyENS0_10offset_ptrIvEELj0EE8get_sizeEv @1199
    _ZNK5boost12interprocess20segment_manager_baseINS0_15rbtree_best_fitINS0_12mutex_familyENS0_10offset_ptrIvEELj0EEEE8get_sizeEv @1200
    _ZNK5boost12interprocess20shared_memory_object18get_mapping_handleEv @1201
    _ZNK5boost12interprocess22interprocess_exception14get_error_codeEv @1202
    _ZNK5boost12interprocess22interprocess_exception4whatEv @1203
    _ZNK5boost12interprocess6detail11named_proxyINS0_15segment_managerIcNS0_15rbtree_best_fitINS0_12mutex_familyENS0_10offset_ptrIvEELj0EEENS0_10iset_indexEEENS_22interprocess_container6vectorIfNS0_9allocatorIfSA_EEEELb0EEclIN9__gnu_cxx17__normal_iteratorIPKfSt6vectorIfSaIfEEEESP_SE_EEPSF_RKT_RKT0_RKT1_ @1204
    _ZNK5boost12interprocess6detail12block_header10alloc_typeEv @1205
    _ZNK5boost12interprocess6detail12block_header10total_sizeEv @1206
    _ZNK5boost12interprocess6detail12block_header11name_lengthEv @1207
    _ZNK5boost12interprocess6detail12block_header11name_offsetEv @1208
    _ZNK5boost12interprocess6detail12block_header11sizeof_charEv @1209
    _ZNK5boost12interprocess6detail12block_header12value_offsetEv @1210
    _ZNK5boost12interprocess6detail12block_header22total_size_with_headerINS1_25intrusive_value_type_implINS_9intrusive6detail12generic_hookINS5_17get_set_node_algoINS0_10offset_ptrIvEELb1EEENS5_11default_tagELNS5_14link_mode_typeE1ELi3EEEcEEEEjv @1211
    _ZNK5boost12interprocess6detail12block_header4nameIcEEPT_v @1212
    _ZNK5boost12interprocess6detail12block_header5valueEv @1213
    _ZNK5boost12interprocess6detail16create_open_funcINS1_25basic_managed_memory_implIcNS0_15rbtree_best_fitINS0_12mutex_familyENS0_10offset_ptrIvEELj0EEENS0_10iset_indexELj8EEEEclEPvjb @1214
    _ZNK5boost12interprocess6detail25basic_managed_memory_implIcNS0_15rbtree_best_fitINS0_12mutex_familyENS0_10offset_ptrIvEELj0EEENS0_10iset_indexELj8EE19get_segment_managerEv @1215
    _ZNK5boost12interprocess6detail25intrusive_value_type_implINS_9intrusive6detail12generic_hookINS3_17get_set_node_algoINS0_10offset_ptrIvEELb1EEENS3_11default_tagELNS3_14link_mode_typeE1ELi3EEEcE11name_lengthEv @1216
    _ZNK5boost12interprocess6detail25intrusive_value_type_implINS_9intrusive6detail12generic_hookINS3_17get_set_node_algoINS0_10offset_ptrIvEELb1EEENS3_11default_tagELNS3_14link_mode_typeE1ELi3EEEcE16get_block_headerEv @1217
    _ZNK5boost12interprocess6detail25intrusive_value_type_implINS_9intrusive6detail12generic_hookINS3_17get_set_node_algoINS0_10offset_ptrIvEELb1EEENS3_11default_tagELNS3_14link_mode_typeE1ELi3EEEcE4nameEv @1218
    _ZNK5boost12interprocess6detail27basic_multiallocation_slistINS0_10offset_ptrIvEEE12before_beginEv @1219
    _ZNK5boost12interprocess6detail27basic_multiallocation_slistINS0_10offset_ptrIvEEE5beginEv @1220
    _ZNK5boost12interprocess6detail27basic_multiallocation_slistINS0_10offset_ptrIvEEE5emptyEv @1221
    _ZNK5boost12interprocess6detail27basic_multiallocation_slistINS0_10offset_ptrIvEEE5frontEv @1222
    _ZNK5boost12interprocess6detail27basic_multiallocation_slistINS0_10offset_ptrIvEEE8iterator26unspecified_bool_type_funcEv @1223
    _ZNK5boost12interprocess6detail27basic_multiallocation_slistINS0_10offset_ptrIvEEE8iteratorcvMS6_KFvvEEv @1224
    _ZNK5boost12interprocess6detail27basic_multiallocation_slistINS0_10offset_ptrIvEEE8iteratoreqERKS6_ @1225
    _ZNK5boost12interprocess6detail27managed_open_or_create_implINS0_20shared_memory_objectELb1EE17get_mapped_regionEv @1226
    _ZNK5boost12interprocess6detail31transform_multiallocation_chainINS1_42basic_multiallocation_cached_counted_slistINS1_34basic_multiallocation_cached_slistINS0_10offset_ptrIvEEEEEENS_22interprocess_container17containers_detail11rbtree_nodeISt4pairIKi16ShPendingCommandES6_EEE5emptyEv @1227
    _ZNK5boost12interprocess6detail31transform_multiallocation_chainINS1_42basic_multiallocation_cached_counted_slistINS1_34basic_multiallocation_cached_slistINS0_10offset_ptrIvEEEEEENS_22interprocess_container17containers_detail11rbtree_nodeISt4pairIKi6ShUnitES6_EEE5emptyEv @1228
    _ZNK5boost12interprocess6detail34basic_multiallocation_cached_slistINS0_10offset_ptrIvEEE12before_beginEv @1229
    _ZNK5boost12interprocess6detail34basic_multiallocation_cached_slistINS0_10offset_ptrIvEEE5emptyEv @1230
    _ZNK5boost12interprocess6detail34basic_multiallocation_cached_slistINS0_10offset_ptrIvEEE5frontEv @1231
    _ZNK5boost12interprocess6detail42basic_multiallocation_cached_counted_slistINS1_34basic_multiallocation_cached_slistINS0_10offset_ptrIvEEEEE12before_beginEv @1232
    _ZNK5boost12interprocess6detail42basic_multiallocation_cached_counted_slistINS1_34basic_multiallocation_cached_slistINS0_10offset_ptrIvEEEEE5emptyEv @1233
    _ZNK5boost12interprocess6detail42basic_multiallocation_cached_counted_slistINS1_34basic_multiallocation_cached_slistINS0_10offset_ptrIvEEEEE5frontEv @1234
    _ZNK5boost12interprocess9allocatorINS_22interprocess_container17containers_detail11rbtree_nodeISt4pairIKi16ShPendingCommandENS0_10offset_ptrIvEEEENS0_15segment_managerIcNS0_15rbtree_best_fitINS0_12mutex_familyESA_Lj0EEENS0_10iset_indexEEEE8max_sizeEv @1235
    _ZNK5boost12interprocess9allocatorIfNS0_15segment_managerIcNS0_15rbtree_best_fitINS0_12mutex_familyENS0_10offset_ptrIvEELj0EEENS0_10iset_indexEEEE19get_segment_managerEv @1236
    _ZNK5boost12interprocess9allocatorIfNS0_15segment_managerIcNS0_15rbtree_best_fitINS0_12mutex_familyENS0_10offset_ptrIvEELj0EEENS0_10iset_indexEEEE8max_sizeEv @1237
    _ZNK5boost12interprocess9bad_alloc4whatEv @1238
    _ZNK5boost16exception_detail10clone_implINS0_19error_info_injectorINS_9gregorian16bad_day_of_monthEEEE5cloneEv @1239
    _ZNK5boost16exception_detail10clone_implINS0_19error_info_injectorINS_9gregorian16bad_day_of_monthEEEE7rethrowEv @1240
    _ZNK5boost16exception_detail10clone_implINS0_19error_info_injectorINS_9gregorian8bad_yearEEEE5cloneEv @1241
    _ZNK5boost16exception_detail10clone_implINS0_19error_info_injectorINS_9gregorian8bad_yearEEEE7rethrowEv @1242
    _ZNK5boost16exception_detail10clone_implINS0_19error_info_injectorINS_9gregorian9bad_monthEEEE5cloneEv @1243
    _ZNK5boost16exception_detail10clone_implINS0_19error_info_injectorINS_9gregorian9bad_monthEEEE7rethrowEv @1244
    _ZNK5boost16exception_detail10clone_implINS0_19error_info_injectorISt13runtime_errorEEE5cloneEv @1245
    _ZNK5boost16exception_detail10clone_implINS0_19error_info_injectorISt13runtime_errorEEE7rethrowEv @1246
    _ZNK5boost16thread_exception12native_errorEv @1247
    _ZNK5boost21thread_resource_error4whatEv @1248
    _ZNK5boost22interprocess_container17containers_detail11rbtree_nodeISt4pairIKi16ShPendingCommandENS_12interprocess10offset_ptrIvEEE8get_dataEv @1249
    _ZNK5boost22interprocess_container17containers_detail11rbtree_nodeISt4pairIKi6ShUnitENS_12interprocess10offset_ptrIvEEE8get_dataEv @1250
    _ZNK5boost22interprocess_container17containers_detail17node_alloc_holderINS_12interprocess9allocatorISt4pairIKi16ShPendingCommandENS3_15segment_managerIcNS3_15rbtree_best_fitINS3_12mutex_familyENS3_10offset_ptrIvEELj0EEENS3_10iset_indexEEEEENS_9intrusive11rbtree_implINSI_6setoptINSI_6detail16base_hook_traitsINS1_11rbtree_nodeIS8_SD_EENSI_18rbtree_node_traitsISD_Lb1EEELNSI_14link_mode_typeE0ENSI_11default_tagELi3EEENS1_12node_compareINS1_18value_compare_implIiS8_St4lessIiENS1_9select1stIS8_EEEESO_EEjLb1EEEEEE5icontEv @1251
    _ZNK5boost22interprocess_container17containers_detail17node_alloc_holderINS_12interprocess9allocatorISt4pairIKi6ShUnitENS3_15segment_managerIcNS3_15rbtree_best_fitINS3_12mutex_familyENS3_10offset_ptrIvEELj0EEENS3_10iset_indexEEEEENS_9intrusive11rbtree_implINSI_6setoptINSI_6detail16base_hook_traitsINS1_11rbtree_nodeIS8_SD_EENSI_18rbtree_node_traitsISD_Lb1EEELNSI_14link_mode_typeE0ENSI_11default_tagELi3EEENS1_12node_compareINS1_18value_compare_implIiS8_St4lessIiENS1_9select1stIS8_EEEESO_EEjLb1EEEEEE5icontEv @1252
    _ZNK5boost22interprocess_container17containers_detail18value_compare_implIiSt4pairIKi16ShPendingCommandESt4lessIiENS1_9select1stIS6_EEEclIS6_iEEbRKT_RKT0_ @1253
    _ZNK5boost22interprocess_container17containers_detail18value_compare_implIiSt4pairIKi16ShPendingCommandESt4lessIiENS1_9select1stIS6_EEEclIiS6_EEbRKT_RKT0_ @1254
    _ZNK5boost22interprocess_container17containers_detail18value_compare_implIiSt4pairIKi6ShUnitESt4lessIiENS1_9select1stIS6_EEEclIS6_iEEbRKT_RKT0_ @1255
    _ZNK5boost22interprocess_container17containers_detail18value_compare_implIiSt4pairIKi6ShUnitESt4lessIiENS1_9select1stIS6_EEEclIiS6_EEbRKT_RKT0_ @1256
    _ZNK5boost22interprocess_container17containers_detail19vector_alloc_holderINS_12interprocess9allocatorIfNS3_15segment_managerIcNS3_15rbtree_best_fitINS3_12mutex_familyENS3_10offset_ptrIvEELj0EEENS3_10iset_indexEEEEEE13next_capacityEj @1257
    _ZNK5boost22interprocess_container17containers_detail19vector_alloc_holderINS_12interprocess9allocatorIfNS3_15segment_managerIcNS3_15rbtree_best_fitINS3_12mutex_familyENS3_10offset_ptrIvEELj0EEENS3_10iset_indexEEEEEE5allocEv @1258
    _ZNK5boost22interprocess_container17containers_detail6rbtreeIiSt4pairIKi16ShPendingCommandENS1_9select1stIS6_EESt4lessIiENS_12interprocess9allocatorIS6_NSB_15segment_managerIcNSB_15rbtree_best_fitINSB_12mutex_familyENSB_10offset_ptrIvEELj0EEENSB_10iset_indexEEEEEE10value_compEv @1259
    _ZNK5boost22interprocess_container17containers_detail6rbtreeIiSt4pairIKi16ShPendingCommandENS1_9select1stIS6_EESt4lessIiENS_12interprocess9allocatorIS6_NSB_15segment_managerIcNSB_15rbtree_best_fitINSB_12mutex_familyENSB_10offset_ptrIvEELj0EEENSB_10iset_indexEEEEEE14const_iteratoreqERKSN_ @1260
    _ZNK5boost22interprocess_container17containers_detail6rbtreeIiSt4pairIKi16ShPendingCommandENS1_9select1stIS6_EESt4lessIiENS_12interprocess9allocatorIS6_NSB_15segment_managerIcNSB_15rbtree_best_fitINSB_12mutex_familyENSB_10offset_ptrIvEELj0EEENSB_10iset_indexEEEEEE16key_node_compareINS1_18value_compare_implIiS6_SA_S8_EEEclIiEEbRKNS1_11rbtree_nodeIS6_SH_EERKT_ @1261
    _ZNK5boost22interprocess_container17containers_detail6rbtreeIiSt4pairIKi16ShPendingCommandENS1_9select1stIS6_EESt4lessIiENS_12interprocess9allocatorIS6_NSB_15segment_managerIcNSB_15rbtree_best_fitINSB_12mutex_familyENSB_10offset_ptrIvEELj0EEENSB_10iset_indexEEEEEE16key_node_compareINS1_18value_compare_implIiS6_SA_S8_EEEclIiEEbRKT_RKNS1_11rbtree_nodeIS6_SH_EE @1262
    _ZNK5boost22interprocess_container17containers_detail6rbtreeIiSt4pairIKi16ShPendingCommandENS1_9select1stIS6_EESt4lessIiENS_12interprocess9allocatorIS6_NSB_15segment_managerIcNSB_15rbtree_best_fitINSB_12mutex_familyENSB_10offset_ptrIvEELj0EEENSB_10iset_indexEEEEEE8iteratordeEv @1263
    _ZNK5boost22interprocess_container17containers_detail6rbtreeIiSt4pairIKi16ShPendingCommandENS1_9select1stIS6_EESt4lessIiENS_12interprocess9allocatorIS6_NSB_15segment_managerIcNSB_15rbtree_best_fitINSB_12mutex_familyENSB_10offset_ptrIvEELj0EEENSB_10iset_indexEEEEEE8key_compEv @1264
    _ZNK5boost22interprocess_container17containers_detail6rbtreeIiSt4pairIKi6ShUnitENS1_9select1stIS6_EESt4lessIiENS_12interprocess9allocatorIS6_NSB_15segment_managerIcNSB_15rbtree_best_fitINSB_12mutex_familyENSB_10offset_ptrIvEELj0EEENSB_10iset_indexEEEEEE10value_compEv @1265
    _ZNK5boost22interprocess_container17containers_detail6rbtreeIiSt4pairIKi6ShUnitENS1_9select1stIS6_EESt4lessIiENS_12interprocess9allocatorIS6_NSB_15segment_managerIcNSB_15rbtree_best_fitINSB_12mutex_familyENSB_10offset_ptrIvEELj0EEENSB_10iset_indexEEEEEE14const_iteratoreqERKSN_ @1266
    _ZNK5boost22interprocess_container17containers_detail6rbtreeIiSt4pairIKi6ShUnitENS1_9select1stIS6_EESt4lessIiENS_12interprocess9allocatorIS6_NSB_15segment_managerIcNSB_15rbtree_best_fitINSB_12mutex_familyENSB_10offset_ptrIvEELj0EEENSB_10iset_indexEEEEEE16key_node_compareINS1_18value_compare_implIiS6_SA_S8_EEEclIiEEbRKNS1_11rbtree_nodeIS6_SH_EERKT_ @1267
    _ZNK5boost22interprocess_container17containers_detail6rbtreeIiSt4pairIKi6ShUnitENS1_9select1stIS6_EESt4lessIiENS_12interprocess9allocatorIS6_NSB_15segment_managerIcNSB_15rbtree_best_fitINSB_12mutex_familyENSB_10offset_ptrIvEELj0EEENSB_10iset_indexEEEEEE16key_node_compareINS1_18value_compare_implIiS6_SA_S8_EEEclIiEEbRKT_RKNS1_11rbtree_nodeIS6_SH_EE @1268
    _ZNK5boost22interprocess_container17containers_detail6rbtreeIiSt4pairIKi6ShUnitENS1_9select1stIS6_EESt4lessIiENS_12interprocess9allocatorIS6_NSB_15segment_managerIcNSB_15rbtree_best_fitINSB_12mutex_familyENSB_10offset_ptrIvEELj0EEENSB_10iset_indexEEEEEE8iteratorptEv @1269
    _ZNK5boost22interprocess_container17containers_detail9select1stISt4pairIKi16ShPendingCommandEEclERS4_ @1270
    _ZNK5boost22interprocess_container17containers_detail9select1stISt4pairIKi16ShPendingCommandEEclIS6_EERS4_RKT_ @1271
    _ZNK5boost22interprocess_container17containers_detail9select1stISt4pairIKi6ShUnitEEclERS4_ @1272
    _ZNK5boost22interprocess_container17containers_detail9select1stISt4pairIKi6ShUnitEEclIS6_EERS4_RKT_ @1273
    _ZNK5boost22interprocess_container3mapIi16ShPendingCommandSt4lessIiENS_12interprocess9allocatorISt4pairIKiS2_ENS5_15segment_managerIcNS5_15rbtree_best_fitINS5_12mutex_familyENS5_10offset_ptrIvEELj0EEENS5_10iset_indexEEEEEE8key_compEv @1274
    _ZNK5boost22interprocess_container6vectorI6PP_PosNS_12interprocess9allocatorIS2_NS3_15segment_managerIcNS3_15rbtree_best_fitINS3_12mutex_familyENS3_10offset_ptrIvEELj0EEENS3_10iset_indexEEEEEE16priv_check_rangeEj @1275
    _ZNK5boost22interprocess_container6vectorI6PP_PosNS_12interprocess9allocatorIS2_NS3_15segment_managerIcNS3_15rbtree_best_fitINS3_12mutex_familyENS3_10offset_ptrIvEELj0EEENS3_10iset_indexEEEEEE4sizeEv @1276
    _ZNK5boost22interprocess_container6vectorI9ShCommandNS_12interprocess9allocatorIS2_NS3_15segment_managerIcNS3_15rbtree_best_fitINS3_12mutex_familyENS3_10offset_ptrIvEELj0EEENS3_10iset_indexEEEEEE16priv_check_rangeEj @1277
    _ZNK5boost22interprocess_container6vectorI9ShCommandNS_12interprocess9allocatorIS2_NS3_15segment_managerIcNS3_15rbtree_best_fitINS3_12mutex_familyENS3_10offset_ptrIvEELj0EEENS3_10iset_indexEEEEEE4sizeEv @1278
    _ZNK5boost22interprocess_container6vectorIfNS_12interprocess9allocatorIfNS2_15segment_managerIcNS2_15rbtree_best_fitINS2_12mutex_familyENS2_10offset_ptrIvEELj0EEENS2_10iset_indexEEEEEE16priv_check_rangeEj @1279
    _ZNK5boost22interprocess_container6vectorIfNS_12interprocess9allocatorIfNS2_15segment_managerIcNS2_15rbtree_best_fitINS2_12mutex_familyENS2_10offset_ptrIvEELj0EEENS2_10iset_indexEEEEEE4sizeEv @1280
    _ZNK5boost22interprocess_container6vectorIiNS_12interprocess9allocatorIiNS2_15segment_managerIcNS2_15rbtree_best_fitINS2_12mutex_familyENS2_10offset_ptrIvEELj0EEENS2_10iset_indexEEEEEE16priv_check_rangeEj @1281
    _ZNK5boost22interprocess_container6vectorIiNS_12interprocess9allocatorIiNS2_15segment_managerIcNS2_15rbtree_best_fitINS2_12mutex_familyENS2_10offset_ptrIvEELj0EEENS2_10iset_indexEEEEEE4sizeEv @1282
    _ZNK5boost23invalid_thread_argument4whatEv @1283
    _ZNK5boost23thread_permission_error4whatEv @1284
    _ZNK5boost25unsupported_thread_option4whatEv @1285
    _ZNK5boost6thread15get_thread_infoEv @1286
    _ZNK5boost6thread22interruption_requestedEv @1287
    _ZNK5boost6thread6get_idEv @1288
    _ZNK5boost6thread8joinableEv @1289
    _ZNK5boost9date_time11int_adapterImE10is_specialEv @1290
    _ZNK5boost9date_time11int_adapterImE11is_infinityEv @1291
    _ZNK5boost9date_time11int_adapterImE6is_nanEv @1292
    _ZNK5boost9date_time11int_adapterImE9as_numberEv @1293
    _ZNK5boost9date_time11int_adapterIxE10is_specialEv @1294
    _ZNK5boost9date_time11int_adapterIxE11is_infinityEv @1295
    _ZNK5boost9date_time11int_adapterIxE6is_nanEv @1296
    _ZNK5boost9date_time11int_adapterIxE9as_numberEv @1297
    _ZNK5boost9date_time11int_adapterIxEplImEES2_RKNS1_IT_EE @1298
    _ZNK5boost9date_time13time_durationINS_10posix_time13time_durationENS0_22time_resolution_traitsINS0_37time_resolution_traits_adapted64_implELNS0_16time_resolutionsE5ELx1000000ELt6EiEEE10is_specialEv @1299
    _ZNK5boost9date_time13time_durationINS_10posix_time13time_durationENS0_22time_resolution_traitsINS0_37time_resolution_traits_adapted64_implELNS0_16time_resolutionsE5ELx1000000ELt6EiEEE18total_millisecondsEv @1300
    _ZNK5boost9date_time13time_durationINS_10posix_time13time_durationENS0_22time_resolution_traitsINS0_37time_resolution_traits_adapted64_implELNS0_16time_resolutionsE5ELx1000000ELt6EiEEE5ticksEv @1301
    _ZNK5boost9date_time13time_durationINS_10posix_time13time_durationENS0_22time_resolution_traitsINS0_37time_resolution_traits_adapted64_implELNS0_16time_resolutionsE5ELx1000000ELt6EiEEE7get_repEv @1302
    _ZNK5boost9date_time4dateINS_9gregorian4dateENS2_18gregorian_calendarENS2_13date_durationEE11is_infinityEv @1303
    _ZNK5boost9date_time4dateINS_9gregorian4dateENS2_18gregorian_calendarENS2_13date_durationEE13is_not_a_dateEv @1304
    _ZNK5boost9date_time4dateINS_9gregorian4dateENS2_18gregorian_calendarENS2_13date_durationEE9day_countEv @1305
    _ZNK5boost9date_time9base_timeINS_10posix_time5ptimeENS0_19counted_time_systemINS0_16counted_time_repINS2_33millisec_posix_time_system_configEEEEEEmiERKS3_ @1306
    _ZNK5boost9gregorian10greg_monthcvtEv @1307
    _ZNK5boost9gregorian4date10day_numberEv @1308
    _ZNK5boost9gregorian8greg_daycvtEv @1309
    _ZNK5boost9gregorian9greg_yearcvtEv @1310
    _ZNK5boost9intrusive11rbtree_implINS0_6setoptINS0_6detail16base_hook_traitsINS_12interprocess15rbtree_best_fitINS5_12mutex_familyENS5_10offset_ptrIvEELj0EE10block_ctrlENS0_18rbtree_node_traitsIS9_Lb1EEELNS0_14link_mode_typeE0ENS0_11default_tagELi3EEESt4lessISB_EjLb1EEEE21get_real_value_traitsENS3_5bool_ILb0EEE @1311
    _ZNK5boost9intrusive11rbtree_implINS0_6setoptINS0_6detail16base_hook_traitsINS_12interprocess15rbtree_best_fitINS5_12mutex_familyENS5_10offset_ptrIvEELj0EE10block_ctrlENS0_18rbtree_node_traitsIS9_Lb1EEELNS0_14link_mode_typeE0ENS0_11default_tagELi3EEESt4lessISB_EjLb1EEEE21get_real_value_traitsEv @1312
    _ZNK5boost9intrusive11rbtree_implINS0_6setoptINS0_6detail16base_hook_traitsINS_12interprocess6detail25intrusive_value_type_implINS3_12generic_hookINS0_17get_set_node_algoINS5_10offset_ptrIvEELb1EEENS0_11default_tagELNS0_14link_mode_typeE1ELi3EEEcEENS0_18rbtree_node_traitsISB_Lb1EEELSE_1ESD_Li3EEESt4lessISG_EjLb1EEEE21get_real_value_traitsENS3_5bool_ILb0EEE @1313
    _ZNK5boost9intrusive11rbtree_implINS0_6setoptINS0_6detail16base_hook_traitsINS_12interprocess6detail25intrusive_value_type_implINS3_12generic_hookINS0_17get_set_node_algoINS5_10offset_ptrIvEELb1EEENS0_11default_tagELNS0_14link_mode_typeE1ELi3EEEcEENS0_18rbtree_node_traitsISB_Lb1EEELSE_1ESD_Li3EEESt4lessISG_EjLb1EEEE21get_real_value_traitsEv @1314
    _ZNK5boost9intrusive11rbtree_implINS0_6setoptINS0_6detail16base_hook_traitsINS_22interprocess_container17containers_detail11rbtree_nodeISt4pairIKi16ShPendingCommandENS_12interprocess10offset_ptrIvEEEENS0_18rbtree_node_traitsISE_Lb1EEELNS0_14link_mode_typeE0ENS0_11default_tagELi3EEENS6_12node_compareINS6_18value_compare_implIiSB_St4lessIiENS6_9select1stISB_EEEESF_EEjLb1EEEE10value_compEv @1315
    _ZNK5boost9intrusive11rbtree_implINS0_6setoptINS0_6detail16base_hook_traitsINS_22interprocess_container17containers_detail11rbtree_nodeISt4pairIKi16ShPendingCommandENS_12interprocess10offset_ptrIvEEEENS0_18rbtree_node_traitsISE_Lb1EEELNS0_14link_mode_typeE0ENS0_11default_tagELi3EEENS6_12node_compareINS6_18value_compare_implIiSB_St4lessIiENS6_9select1stISB_EEEESF_EEjLb1EEEE21get_real_value_traitsENS3_5bool_ILb0EEE @1316
    _ZNK5boost9intrusive11rbtree_implINS0_6setoptINS0_6detail16base_hook_traitsINS_22interprocess_container17containers_detail11rbtree_nodeISt4pairIKi16ShPendingCommandENS_12interprocess10offset_ptrIvEEEENS0_18rbtree_node_traitsISE_Lb1EEELNS0_14link_mode_typeE0ENS0_11default_tagELi3EEENS6_12node_compareINS6_18value_compare_implIiSB_St4lessIiENS6_9select1stISB_EEEESF_EEjLb1EEEE21get_real_value_traitsEv @1317
    _ZNK5boost9intrusive11rbtree_implINS0_6setoptINS0_6detail16base_hook_traitsINS_22interprocess_container17containers_detail11rbtree_nodeISt4pairIKi16ShPendingCommandENS_12interprocess10offset_ptrIvEEEENS0_18rbtree_node_traitsISE_Lb1EEELNS0_14link_mode_typeE0ENS0_11default_tagELi3EEENS6_12node_compareINS6_18value_compare_implIiSB_St4lessIiENS6_9select1stISB_EEEESF_EEjLb1EEEE9priv_compEv @1318
    _ZNK5boost9intrusive11rbtree_implINS0_6setoptINS0_6detail16base_hook_traitsINS_22interprocess_container17containers_detail11rbtree_nodeISt4pairIKi6ShUnitENS_12interprocess10offset_ptrIvEEEENS0_18rbtree_node_traitsISE_Lb1EEELNS0_14link_mode_typeE0ENS0_11default_tagELi3EEENS6_12node_compareINS6_18value_compare_implIiSB_St4lessIiENS6_9select1stISB_EEEESF_EEjLb1EEEE10value_compEv @1319
    _ZNK5boost9intrusive11rbtree_implINS0_6setoptINS0_6detail16base_hook_traitsINS_22interprocess_container17containers_detail11rbtree_nodeISt4pairIKi6ShUnitENS_12interprocess10offset_ptrIvEEEENS0_18rbtree_node_traitsISE_Lb1EEELNS0_14link_mode_typeE0ENS0_11default_tagELi3EEENS6_12node_compareINS6_18value_compare_implIiSB_St4lessIiENS6_9select1stISB_EEEESF_EEjLb1EEEE21get_real_value_traitsENS3_5bool_ILb0EEE @1320
    _ZNK5boost9intrusive11rbtree_implINS0_6setoptINS0_6detail16base_hook_traitsINS_22interprocess_container17containers_detail11rbtree_nodeISt4pairIKi6ShUnitENS_12interprocess10offset_ptrIvEEEENS0_18rbtree_node_traitsISE_Lb1EEELNS0_14link_mode_typeE0ENS0_11default_tagELi3EEENS6_12node_compareINS6_18value_compare_implIiSB_St4lessIiENS6_9select1stISB_EEEESF_EEjLb1EEEE21get_real_value_traitsEv @1321
    _ZNK5boost9intrusive11rbtree_implINS0_6setoptINS0_6detail16base_hook_traitsINS_22interprocess_container17containers_detail11rbtree_nodeISt4pairIKi6ShUnitENS_12interprocess10offset_ptrIvEEEENS0_18rbtree_node_traitsISE_Lb1EEELNS0_14link_mode_typeE0ENS0_11default_tagELi3EEENS6_12node_compareINS6_18value_compare_implIiSB_St4lessIiENS6_9select1stISB_EEEESF_EEjLb1EEEE9priv_compEv @1322
    _ZNK5boost9intrusive13tree_iteratorINS0_11rbtree_implINS0_6setoptINS0_6detail16base_hook_traitsINS_12interprocess15rbtree_best_fitINS6_12mutex_familyENS6_10offset_ptrIvEELj0EE10block_ctrlENS0_18rbtree_node_traitsISA_Lb1EEELNS0_14link_mode_typeE0ENS0_11default_tagELi3EEESt4lessISC_EjLb1EEEEELb0EE12pointed_nodeEv @1323
    _ZNK5boost9intrusive13tree_iteratorINS0_11rbtree_implINS0_6setoptINS0_6detail16base_hook_traitsINS_12interprocess15rbtree_best_fitINS6_12mutex_familyENS6_10offset_ptrIvEELj0EE10block_ctrlENS0_18rbtree_node_traitsISA_Lb1EEELNS0_14link_mode_typeE0ENS0_11default_tagELi3EEESt4lessISC_EjLb1EEEEELb0EE13get_containerEv @1324
    _ZNK5boost9intrusive13tree_iteratorINS0_11rbtree_implINS0_6setoptINS0_6detail16base_hook_traitsINS_12interprocess15rbtree_best_fitINS6_12mutex_familyENS6_10offset_ptrIvEELj0EE10block_ctrlENS0_18rbtree_node_traitsISA_Lb1EEELNS0_14link_mode_typeE0ENS0_11default_tagELi3EEESt4lessISC_EjLb1EEEEELb0EE21get_real_value_traitsEv @1325
    _ZNK5boost9intrusive13tree_iteratorINS0_11rbtree_implINS0_6setoptINS0_6detail16base_hook_traitsINS_12interprocess15rbtree_best_fitINS6_12mutex_familyENS6_10offset_ptrIvEELj0EE10block_ctrlENS0_18rbtree_node_traitsISA_Lb1EEELNS0_14link_mode_typeE0ENS0_11default_tagELi3EEESt4lessISC_EjLb1EEEEELb0EEdeEv @1326
    _ZNK5boost9intrusive13tree_iteratorINS0_11rbtree_implINS0_6setoptINS0_6detail16base_hook_traitsINS_12interprocess15rbtree_best_fitINS6_12mutex_familyENS6_10offset_ptrIvEELj0EE10block_ctrlENS0_18rbtree_node_traitsISA_Lb1EEELNS0_14link_mode_typeE0ENS0_11default_tagELi3EEESt4lessISC_EjLb1EEEEELb0EEeqERKSM_ @1327
    _ZNK5boost9intrusive13tree_iteratorINS0_11rbtree_implINS0_6setoptINS0_6detail16base_hook_traitsINS_12interprocess15rbtree_best_fitINS6_12mutex_familyENS6_10offset_ptrIvEELj0EE10block_ctrlENS0_18rbtree_node_traitsISA_Lb1EEELNS0_14link_mode_typeE0ENS0_11default_tagELi3EEESt4lessISC_EjLb1EEEEELb0EEneERKSM_ @1328
    _ZNK5boost9intrusive13tree_iteratorINS0_11rbtree_implINS0_6setoptINS0_6detail16base_hook_traitsINS_12interprocess15rbtree_best_fitINS6_12mutex_familyENS6_10offset_ptrIvEELj0EE10block_ctrlENS0_18rbtree_node_traitsISA_Lb1EEELNS0_14link_mode_typeE0ENS0_11default_tagELi3EEESt4lessISC_EjLb1EEEEELb0EEptEv @1329
    _ZNK5boost9intrusive13tree_iteratorINS0_11rbtree_implINS0_6setoptINS0_6detail16base_hook_traitsINS_12interprocess15rbtree_best_fitINS6_12mutex_familyENS6_10offset_ptrIvEELj0EE10block_ctrlENS0_18rbtree_node_traitsISA_Lb1EEELNS0_14link_mode_typeE0ENS0_11default_tagELi3EEESt4lessISC_EjLb1EEEEELb1EE12pointed_nodeEv @1330
    _ZNK5boost9intrusive13tree_iteratorINS0_11rbtree_implINS0_6setoptINS0_6detail16base_hook_traitsINS_12interprocess15rbtree_best_fitINS6_12mutex_familyENS6_10offset_ptrIvEELj0EE10block_ctrlENS0_18rbtree_node_traitsISA_Lb1EEELNS0_14link_mode_typeE0ENS0_11default_tagELi3EEESt4lessISC_EjLb1EEEEELb1EE13get_containerEv @1331
    _ZNK5boost9intrusive13tree_iteratorINS0_11rbtree_implINS0_6setoptINS0_6detail16base_hook_traitsINS_12interprocess15rbtree_best_fitINS6_12mutex_familyENS6_10offset_ptrIvEELj0EE10block_ctrlENS0_18rbtree_node_traitsISA_Lb1EEELNS0_14link_mode_typeE0ENS0_11default_tagELi3EEESt4lessISC_EjLb1EEEEELb1EE7unconstEv @1332
    _ZNK5boost9intrusive13tree_iteratorINS0_11rbtree_implINS0_6setoptINS0_6detail16base_hook_traitsINS_12interprocess6detail25intrusive_value_type_implINS4_12generic_hookINS0_17get_set_node_algoINS6_10offset_ptrIvEELb1EEENS0_11default_tagELNS0_14link_mode_typeE1ELi3EEEcEENS0_18rbtree_node_traitsISC_Lb1EEELSF_1ESE_Li3EEESt4lessISH_EjLb1EEEEELb0EE12pointed_nodeEv @1333
    _ZNK5boost9intrusive13tree_iteratorINS0_11rbtree_implINS0_6setoptINS0_6detail16base_hook_traitsINS_12interprocess6detail25intrusive_value_type_implINS4_12generic_hookINS0_17get_set_node_algoINS6_10offset_ptrIvEELb1EEENS0_11default_tagELNS0_14link_mode_typeE1ELi3EEEcEENS0_18rbtree_node_traitsISC_Lb1EEELSF_1ESE_Li3EEESt4lessISH_EjLb1EEEEELb0EE13get_containerEv @1334
    _ZNK5boost9intrusive13tree_iteratorINS0_11rbtree_implINS0_6setoptINS0_6detail16base_hook_traitsINS_12interprocess6detail25intrusive_value_type_implINS4_12generic_hookINS0_17get_set_node_algoINS6_10offset_ptrIvEELb1EEENS0_11default_tagELNS0_14link_mode_typeE1ELi3EEEcEENS0_18rbtree_node_traitsISC_Lb1EEELSF_1ESE_Li3EEESt4lessISH_EjLb1EEEEELb0EE21get_real_value_traitsEv @1335
    _ZNK5boost9intrusive13tree_iteratorINS0_11rbtree_implINS0_6setoptINS0_6detail16base_hook_traitsINS_12interprocess6detail25intrusive_value_type_implINS4_12generic_hookINS0_17get_set_node_algoINS6_10offset_ptrIvEELb1EEENS0_11default_tagELNS0_14link_mode_typeE1ELi3EEEcEENS0_18rbtree_node_traitsISC_Lb1EEELSF_1ESE_Li3EEESt4lessISH_EjLb1EEEEELb0EEeqERKSP_ @1336
    _ZNK5boost9intrusive13tree_iteratorINS0_11rbtree_implINS0_6setoptINS0_6detail16base_hook_traitsINS_12interprocess6detail25intrusive_value_type_implINS4_12generic_hookINS0_17get_set_node_algoINS6_10offset_ptrIvEELb1EEENS0_11default_tagELNS0_14link_mode_typeE1ELi3EEEcEENS0_18rbtree_node_traitsISC_Lb1EEELSF_1ESE_Li3EEESt4lessISH_EjLb1EEEEELb0EEneERKSP_ @1337
    _ZNK5boost9intrusive13tree_iteratorINS0_11rbtree_implINS0_6setoptINS0_6detail16base_hook_traitsINS_12interprocess6detail25intrusive_value_type_implINS4_12generic_hookINS0_17get_set_node_algoINS6_10offset_ptrIvEELb1EEENS0_11default_tagELNS0_14link_mode_typeE1ELi3EEEcEENS0_18rbtree_node_traitsISC_Lb1EEELSF_1ESE_Li3EEESt4lessISH_EjLb1EEEEELb0EEptEv @1338
    _ZNK5boost9intrusive13tree_iteratorINS0_11rbtree_implINS0_6setoptINS0_6detail16base_hook_traitsINS_12interprocess6detail25intrusive_value_type_implINS4_12generic_hookINS0_17get_set_node_algoINS6_10offset_ptrIvEELb1EEENS0_11default_tagELNS0_14link_mode_typeE1ELi3EEEcEENS0_18rbtree_node_traitsISC_Lb1EEELSF_1ESE_Li3EEESt4lessISH_EjLb1EEEEELb1EE12pointed_nodeEv @1339
    _ZNK5boost9intrusive13tree_iteratorINS0_11rbtree_implINS0_6setoptINS0_6detail16base_hook_traitsINS_12interprocess6detail25intrusive_value_type_implINS4_12generic_hookINS0_17get_set_node_algoINS6_10offset_ptrIvEELb1EEENS0_11default_tagELNS0_14link_mode_typeE1ELi3EEEcEENS0_18rbtree_node_traitsISC_Lb1EEELSF_1ESE_Li3EEESt4lessISH_EjLb1EEEEELb1EE13get_containerEv @1340
    _ZNK5boost9intrusive13tree_iteratorINS0_11rbtree_implINS0_6setoptINS0_6detail16base_hook_traitsINS_12interprocess6detail25intrusive_value_type_implINS4_12generic_hookINS0_17get_set_node_algoINS6_10offset_ptrIvEELb1EEENS0_11default_tagELNS0_14link_mode_typeE1ELi3EEEcEENS0_18rbtree_node_traitsISC_Lb1EEELSF_1ESE_Li3EEESt4lessISH_EjLb1EEEEELb1EE7unconstEv @1341
    _ZNK5boost9intrusive13tree_iteratorINS0_11rbtree_implINS0_6setoptINS0_6detail16base_hook_traitsINS_22interprocess_container17containers_detail11rbtree_nodeISt4pairIKi16ShPendingCommandENS_12interprocess10offset_ptrIvEEEENS0_18rbtree_node_traitsISF_Lb1EEELNS0_14link_mode_typeE0ENS0_11default_tagELi3EEENS7_12node_compareINS7_18value_compare_implIiSC_St4lessIiENS7_9select1stISC_EEEESG_EEjLb1EEEEELb0EE12pointed_nodeEv @1342
    _ZNK5boost9intrusive13tree_iteratorINS0_11rbtree_implINS0_6setoptINS0_6detail16base_hook_traitsINS_22interprocess_container17containers_detail11rbtree_nodeISt4pairIKi16ShPendingCommandENS_12interprocess10offset_ptrIvEEEENS0_18rbtree_node_traitsISF_Lb1EEELNS0_14link_mode_typeE0ENS0_11default_tagELi3EEENS7_12node_compareINS7_18value_compare_implIiSC_St4lessIiENS7_9select1stISC_EEEESG_EEjLb1EEEEELb0EE13get_containerEv @1343
    _ZNK5boost9intrusive13tree_iteratorINS0_11rbtree_implINS0_6setoptINS0_6detail16base_hook_traitsINS_22interprocess_container17containers_detail11rbtree_nodeISt4pairIKi16ShPendingCommandENS_12interprocess10offset_ptrIvEEEENS0_18rbtree_node_traitsISF_Lb1EEELNS0_14link_mode_typeE0ENS0_11default_tagELi3EEENS7_12node_compareINS7_18value_compare_implIiSC_St4lessIiENS7_9select1stISC_EEEESG_EEjLb1EEEEELb0EE21get_real_value_traitsEv @1344
    _ZNK5boost9intrusive13tree_iteratorINS0_11rbtree_implINS0_6setoptINS0_6detail16base_hook_traitsINS_22interprocess_container17containers_detail11rbtree_nodeISt4pairIKi16ShPendingCommandENS_12interprocess10offset_ptrIvEEEENS0_18rbtree_node_traitsISF_Lb1EEELNS0_14link_mode_typeE0ENS0_11default_tagELi3EEENS7_12node_compareINS7_18value_compare_implIiSC_St4lessIiENS7_9select1stISC_EEEESG_EEjLb1EEEEELb0EEeqERKSW_ @1345
    _ZNK5boost9intrusive13tree_iteratorINS0_11rbtree_implINS0_6setoptINS0_6detail16base_hook_traitsINS_22interprocess_container17containers_detail11rbtree_nodeISt4pairIKi16ShPendingCommandENS_12interprocess10offset_ptrIvEEEENS0_18rbtree_node_traitsISF_Lb1EEELNS0_14link_mode_typeE0ENS0_11default_tagELi3EEENS7_12node_compareINS7_18value_compare_implIiSC_St4lessIiENS7_9select1stISC_EEEESG_EEjLb1EEEEELb0EEptEv @1346
    _ZNK5boost9intrusive13tree_iteratorINS0_11rbtree_implINS0_6setoptINS0_6detail16base_hook_traitsINS_22interprocess_container17containers_detail11rbtree_nodeISt4pairIKi16ShPendingCommandENS_12interprocess10offset_ptrIvEEEENS0_18rbtree_node_traitsISF_Lb1EEELNS0_14link_mode_typeE0ENS0_11default_tagELi3EEENS7_12node_compareINS7_18value_compare_implIiSC_St4lessIiENS7_9select1stISC_EEEESG_EEjLb1EEEEELb1EE12pointed_nodeEv @1347
    _ZNK5boost9intrusive13tree_iteratorINS0_11rbtree_implINS0_6setoptINS0_6detail16base_hook_traitsINS_22interprocess_container17containers_detail11rbtree_nodeISt4pairIKi6ShUnitENS_12interprocess10offset_ptrIvEEEENS0_18rbtree_node_traitsISF_Lb1EEELNS0_14link_mode_typeE0ENS0_11default_tagELi3EEENS7_12node_compareINS7_18value_compare_implIiSC_St4lessIiENS7_9select1stISC_EEEESG_EEjLb1EEEEELb0EE12pointed_nodeEv @1348
    _ZNK5boost9intrusive13tree_iteratorINS0_11rbtree_implINS0_6setoptINS0_6detail16base_hook_traitsINS_22interprocess_container17containers_detail11rbtree_nodeISt4pairIKi6ShUnitENS_12interprocess10offset_ptrIvEEEENS0_18rbtree_node_traitsISF_Lb1EEELNS0_14link_mode_typeE0ENS0_11default_tagELi3EEENS7_12node_compareINS7_18value_compare_implIiSC_St4lessIiENS7_9select1stISC_EEEESG_EEjLb1EEEEELb0EE13get_containerEv @1349
    _ZNK5boost9intrusive13tree_iteratorINS0_11rbtree_implINS0_6setoptINS0_6detail16base_hook_traitsINS_22interprocess_container17containers_detail11rbtree_nodeISt4pairIKi6ShUnitENS_12interprocess10offset_ptrIvEEEENS0_18rbtree_node_traitsISF_Lb1EEELNS0_14link_mode_typeE0ENS0_11default_tagELi3EEENS7_12node_compareINS7_18value_compare_implIiSC_St4lessIiENS7_9select1stISC_EEEESG_EEjLb1EEEEELb0EE21get_real_value_traitsEv @1350
    _ZNK5boost9intrusive13tree_iteratorINS0_11rbtree_implINS0_6setoptINS0_6detail16base_hook_traitsINS_22interprocess_container17containers_detail11rbtree_nodeISt4pairIKi6ShUnitENS_12interprocess10offset_ptrIvEEEENS0_18rbtree_node_traitsISF_Lb1EEELNS0_14link_mode_typeE0ENS0_11default_tagELi3EEENS7_12node_compareINS7_18value_compare_implIiSC_St4lessIiENS7_9select1stISC_EEEESG_EEjLb1EEEEELb0EEeqERKSW_ @1351
    _ZNK5boost9intrusive13tree_iteratorINS0_11rbtree_implINS0_6setoptINS0_6detail16base_hook_traitsINS_22interprocess_container17containers_detail11rbtree_nodeISt4pairIKi6ShUnitENS_12interprocess10offset_ptrIvEEEENS0_18rbtree_node_traitsISF_Lb1EEELNS0_14link_mode_typeE0ENS0_11default_tagELi3EEENS7_12node_compareINS7_18value_compare_implIiSC_St4lessIiENS7_9select1stISC_EEEESG_EEjLb1EEEEELb0EEptEv @1352
    _ZNK5boost9intrusive6detail12generic_hookINS0_17get_set_node_algoINS_12interprocess10offset_ptrIvEELb1EEENS0_11default_tagELNS0_14link_mode_typeE1ELi3EE9is_linkedEv @1353
    _ZNK5boost9intrusive6detail16key_nodeptr_compINS_12interprocess10iset_indexINS3_6detail12index_configIcNS3_15rbtree_best_fitINS3_12mutex_familyENS3_10offset_ptrIvEELj0EEEEEE24intrusive_key_value_lessENS0_11rbtree_implINS0_6setoptINS1_16base_hook_traitsINS5_25intrusive_value_type_implINS1_12generic_hookINS0_17get_set_node_algoISA_Lb1EEENS0_11default_tagELNS0_14link_mode_typeE1ELi3EEEcEENS0_18rbtree_node_traitsISA_Lb1EEELSN_1ESM_Li3EEESt4lessISP_EjLb1EEEEEEclINS5_21intrusive_compare_keyIcEEEEbNS9_IKNS0_19compact_rbtree_nodeISA_EEEERKT_PNS1_11enable_if_cIXntsrNS1_14is_convertibleIS15_S14_EE5valueEvE4typeE @1354
    _ZNK5boost9intrusive6detail16key_nodeptr_compINS_12interprocess10iset_indexINS3_6detail12index_configIcNS3_15rbtree_best_fitINS3_12mutex_familyENS3_10offset_ptrIvEELj0EEEEEE24intrusive_key_value_lessENS0_11rbtree_implINS0_6setoptINS1_16base_hook_traitsINS5_25intrusive_value_type_implINS1_12generic_hookINS0_17get_set_node_algoISA_Lb1EEENS0_11default_tagELNS0_14link_mode_typeE1ELi3EEEcEENS0_18rbtree_node_traitsISA_Lb1EEELSN_1ESM_Li3EEESt4lessISP_EjLb1EEEEEEclINS5_21intrusive_compare_keyIcEEEEbRKT_NS9_IKNS0_19compact_rbtree_nodeISA_EEEEPNS1_11enable_if_cIXntsrNS1_14is_convertibleIS11_S17_EE5valueEvE4typeE @1355
    _ZNK5boost9intrusive6detail16key_nodeptr_compINS_12interprocess15rbtree_best_fitINS3_12mutex_familyENS3_10offset_ptrIvEELj0EE23size_block_ctrl_compareENS0_11rbtree_implINS0_6setoptINS1_16base_hook_traitsINS8_10block_ctrlENS0_18rbtree_node_traitsIS7_Lb1EEELNS0_14link_mode_typeE0ENS0_11default_tagELi3EEESt4lessISD_EjLb1EEEEEEclIjEEbNS6_IKNS0_19compact_rbtree_nodeIS7_EEEERKT_PNS1_11enable_if_cIXntsrNS1_14is_convertibleIST_SS_EE5valueEvE4typeE @1356
    _ZNK5boost9intrusive6detail16key_nodeptr_compINS_22interprocess_container17containers_detail6rbtreeIiSt4pairIKi16ShPendingCommandENS4_9select1stIS9_EESt4lessIiENS_12interprocess9allocatorIS9_NSE_15segment_managerIcNSE_15rbtree_best_fitINSE_12mutex_familyENSE_10offset_ptrIvEELj0EEENSE_10iset_indexEEEEEE16key_node_compareINS4_18value_compare_implIiS9_SD_SB_EEEENS0_11rbtree_implINS0_6setoptINS1_16base_hook_traitsINS4_11rbtree_nodeIS9_SK_EENS0_18rbtree_node_traitsISK_Lb1EEELNS0_14link_mode_typeE0ENS0_11default_tagELi3EEENS4_12node_compareISS_SY_EEjLb1EEEEEEclIiEEbNSJ_IKNS0_19compact_rbtree_nodeISK_EEEERKT_PNS1_11enable_if_cIXntsrNS1_14is_convertibleIS1E_S1D_EE5valueEvE4typeE @1357
    _ZNK5boost9intrusive6detail16key_nodeptr_compINS_22interprocess_container17containers_detail6rbtreeIiSt4pairIKi16ShPendingCommandENS4_9select1stIS9_EESt4lessIiENS_12interprocess9allocatorIS9_NSE_15segment_managerIcNSE_15rbtree_best_fitINSE_12mutex_familyENSE_10offset_ptrIvEELj0EEENSE_10iset_indexEEEEEE16key_node_compareINS4_18value_compare_implIiS9_SD_SB_EEEENS0_11rbtree_implINS0_6setoptINS1_16base_hook_traitsINS4_11rbtree_nodeIS9_SK_EENS0_18rbtree_node_traitsISK_Lb1EEELNS0_14link_mode_typeE0ENS0_11default_tagELi3EEENS4_12node_compareISS_SY_EEjLb1EEEEEEclIiEEbRKT_NSJ_IKNS0_19compact_rbtree_nodeISK_EEEEPNS1_11enable_if_cIXntsrNS1_14is_convertibleIS1A_S1G_EE5valueEvE4typeE @1358
    _ZNK5boost9intrusive6detail16key_nodeptr_compINS_22interprocess_container17containers_detail6rbtreeIiSt4pairIKi6ShUnitENS4_9select1stIS9_EESt4lessIiENS_12interprocess9allocatorIS9_NSE_15segment_managerIcNSE_15rbtree_best_fitINSE_12mutex_familyENSE_10offset_ptrIvEELj0EEENSE_10iset_indexEEEEEE16key_node_compareINS4_18value_compare_implIiS9_SD_SB_EEEENS0_11rbtree_implINS0_6setoptINS1_16base_hook_traitsINS4_11rbtree_nodeIS9_SK_EENS0_18rbtree_node_traitsISK_Lb1EEELNS0_14link_mode_typeE0ENS0_11default_tagELi3EEENS4_12node_compareISS_SY_EEjLb1EEEEEEclIiEEbNSJ_IKNS0_19compact_rbtree_nodeISK_EEEERKT_PNS1_11enable_if_cIXntsrNS1_14is_convertibleIS1E_S1D_EE5valueEvE4typeE @1359
    _ZNK5boost9intrusive6detail16key_nodeptr_compINS_22interprocess_container17containers_detail6rbtreeIiSt4pairIKi6ShUnitENS4_9select1stIS9_EESt4lessIiENS_12interprocess9allocatorIS9_NSE_15segment_managerIcNSE_15rbtree_best_fitINSE_12mutex_familyENSE_10offset_ptrIvEELj0EEENSE_10iset_indexEEEEEE16key_node_compareINS4_18value_compare_implIiS9_SD_SB_EEEENS0_11rbtree_implINS0_6setoptINS1_16base_hook_traitsINS4_11rbtree_nodeIS9_SK_EENS0_18rbtree_node_traitsISK_Lb1EEELNS0_14link_mode_typeE0ENS0_11default_tagELi3EEENS4_12node_compareISS_SY_EEjLb1EEEEEEclIiEEbRKT_NSJ_IKNS0_19compact_rbtree_nodeISK_EEEEPNS1_11enable_if_cIXntsrNS1_14is_convertibleIS1A_S1G_EE5valueEvE4typeE @1360
    _ZNK5boost9intrusive6detail16key_nodeptr_compISt4lessINS_12interprocess15rbtree_best_fitINS4_12mutex_familyENS4_10offset_ptrIvEELj0EE10block_ctrlEENS0_11rbtree_implINS0_6setoptINS1_16base_hook_traitsISA_NS0_18rbtree_node_traitsIS8_Lb1EEELNS0_14link_mode_typeE0ENS0_11default_tagELi3EEESB_jLb1EEEEEEclENS7_IKNS0_19compact_rbtree_nodeIS8_EEEESQ_ @1361
    _ZNK5boost9intrusive6detail23ebo_functor_holder_implINS_12interprocess10iset_indexINS3_6detail12index_configIcNS3_15rbtree_best_fitINS3_12mutex_familyENS3_10offset_ptrIvEELj0EEEEEE24intrusive_key_value_lessELb0EE3getEv @1362
    _ZNK5boost9intrusive6detail23ebo_functor_holder_implINS_12interprocess15rbtree_best_fitINS3_12mutex_familyENS3_10offset_ptrIvEELj0EE23size_block_ctrl_compareELb0EE3getEv @1363
    _ZNK5boost9intrusive6detail23ebo_functor_holder_implINS_22interprocess_container17containers_detail12node_compareINS4_18value_compare_implIiSt4pairIKi16ShPendingCommandESt4lessIiENS4_9select1stISA_EEEENS4_11rbtree_nodeISA_NS_12interprocess10offset_ptrIvEEEEEELb0EE3getEv @1364
    _ZNK5boost9intrusive6detail23ebo_functor_holder_implINS_22interprocess_container17containers_detail12node_compareINS4_18value_compare_implIiSt4pairIKi6ShUnitESt4lessIiENS4_9select1stISA_EEEENS4_11rbtree_nodeISA_NS_12interprocess10offset_ptrIvEEEEEELb0EE3getEv @1365
    _ZNK5boost9intrusive6detail23ebo_functor_holder_implINS_22interprocess_container17containers_detail6rbtreeIiSt4pairIKi16ShPendingCommandENS4_9select1stIS9_EESt4lessIiENS_12interprocess9allocatorIS9_NSE_15segment_managerIcNSE_15rbtree_best_fitINSE_12mutex_familyENSE_10offset_ptrIvEELj0EEENSE_10iset_indexEEEEEE16key_node_compareINS4_18value_compare_implIiS9_SD_SB_EEEELb0EE3getEv @1366
    _ZNK5boost9intrusive6detail23ebo_functor_holder_implINS_22interprocess_container17containers_detail6rbtreeIiSt4pairIKi6ShUnitENS4_9select1stIS9_EESt4lessIiENS_12interprocess9allocatorIS9_NSE_15segment_managerIcNSE_15rbtree_best_fitINSE_12mutex_familyENSE_10offset_ptrIvEELj0EEENSE_10iset_indexEEEEEE16key_node_compareINS4_18value_compare_implIiS9_SD_SB_EEEELb0EE3getEv @1367
    _ZNK5boost9intrusive6detail23ebo_functor_holder_implISt4lessINS_12interprocess15rbtree_best_fitINS4_12mutex_familyENS4_10offset_ptrIvEELj0EE10block_ctrlEELb0EE3getEv @1368
    _ZNK9__gnu_cxx13new_allocatorIfE8max_sizeEv @1369
    _ZNK9__gnu_cxx17__normal_iteratorIPKfSt6vectorIfSaIfEEE4baseEv @1370
    _ZNKSt4lessIN5boost12interprocess15rbtree_best_fitINS1_12mutex_familyENS1_10offset_ptrIvEELj0EE10block_ctrlEEclERKS7_SA_ @1371
    _ZNKSt4lessIiEclERKiS2_ @1372
    _ZNKSt6vectorIfSaIfEE3endEv @1373
    _ZNKSt6vectorIfSaIfEE5beginEv @1374
    _ZNKSt9type_info4nameEv @1375
    _ZNSaIfEC1Ev @1376
    _ZNSaIfEC2ERKS_ @1377
    _ZNSaIfEC2Ev @1378
    _ZNSaIfED1Ev @1379
    _ZNSaIfED2Ev @1380
    _ZNSt11__copy_moveILb0ELb1ESt26random_access_iterator_tagE8__copy_mIfEEPT_PKS3_S6_S4_ @1381
    _ZNSt11char_traitsIcE4copyEPcPKcj @1382
    _ZNSt11char_traitsIcE6lengthEPKc @1383
    _ZNSt11char_traitsIcE7compareEPKcS2_j @1384
    _ZNSt11logic_errorC2ERKS_ @1385
    _ZNSt12_Vector_baseIfSaIfEE11_M_allocateEj @1386
    _ZNSt12_Vector_baseIfSaIfEE12_Vector_implC1ERKS0_ @1387
    _ZNSt12_Vector_baseIfSaIfEE12_Vector_implC1Ev @1388
    _ZNSt12_Vector_baseIfSaIfEE12_Vector_implD1Ev @1389
    _ZNSt12_Vector_baseIfSaIfEE13_M_deallocateEPfj @1390
    _ZNSt12_Vector_baseIfSaIfEE19_M_get_Tp_allocatorEv @1391
    _ZNSt12_Vector_baseIfSaIfEEC2ERKS0_ @1392
    _ZNSt12_Vector_baseIfSaIfEEC2EjRKS0_ @1393
    _ZNSt12_Vector_baseIfSaIfEEC2Ev @1394
    _ZNSt12_Vector_baseIfSaIfEED2Ev @1395
    _ZNSt12__miter_baseIN9__gnu_cxx17__normal_iteratorIPKfSt6vectorIfSaIfEEEELb0EE3__bES7_ @1396
    _ZNSt12__niter_baseIN9__gnu_cxx17__normal_iteratorIPKfSt6vectorIfSaIfEEEELb1EE3__bES7_ @1397
    _ZNSt12__niter_baseIPfLb0EE3__bES0_ @1398
    _ZNSt12out_of_rangeC1ERKS_ @1399
    _ZNSt12out_of_rangeC2ERKS_ @1400
    _ZNSt12out_of_rangeD0Ev @1401
    _ZNSt12out_of_rangeD1Ev @1402
    _ZNSt12out_of_rangeD2Ev @1403
    _ZNSt13runtime_errorC2ERKS_ @1404
    _ZNSt14numeric_limitsIjE3maxEv @1405
    _ZNSt14numeric_limitsImE3maxEv @1406
    _ZNSt14numeric_limitsImE3minEv @1407
    _ZNSt14numeric_limitsIxE3maxEv @1408
    _ZNSt14numeric_limitsIxE3minEv @1409
    _ZNSt20__uninitialized_copyILb1EE18uninitialized_copyIN9__gnu_cxx17__normal_iteratorIPKfSt6vectorIfSaIfEEEEPfEET0_T_SC_SB_ @1410
    _ZNSt22__uninitialized_fill_nILb1EE20uninitialized_fill_nIPfjfEEvT_T0_RKT1_ @1411
    _ZNSt4pairIKi16ShPendingCommandEC1ERS0_RKS1_ @1412
    _ZNSt4pairIN5boost12interprocess10offset_ptrINS0_9intrusive19compact_rbtree_nodeINS2_IvEEEEEEbEC1ERKS7_RKb @1413
    _ZNSt4pairIN5boost12interprocess10offset_ptrIfEEbEC1Ev @1414
    _ZNSt4pairIN5boost12interprocess10offset_ptrIfEEbEC1IPfbEERKS_IT_T0_E @1415
    _ZNSt4pairIN5boost12interprocess10offset_ptrIfEEbEaSERKS4_ @1416
    _ZNSt4pairIN5boost22interprocess_container17containers_detail6rbtreeIiS_IKi16ShPendingCommandENS2_9select1stIS6_EESt4lessIiENS0_12interprocess9allocatorIS6_NSB_15segment_managerIcNSB_15rbtree_best_fitINSB_12mutex_familyENSB_10offset_ptrIvEELj0EEENSB_10iset_indexEEEEEE8iteratorEbEC1ERKSN_RKb @1417
    _ZNSt4pairIN5boost9intrusive13tree_iteratorINS1_11rbtree_implINS1_6setoptINS1_6detail16base_hook_traitsINS0_12interprocess6detail25intrusive_value_type_implINS5_12generic_hookINS1_17get_set_node_algoINS7_10offset_ptrIvEELb1EEENS1_11default_tagELNS1_14link_mode_typeE1ELi3EEEcEENS1_18rbtree_node_traitsISD_Lb1EEELSG_1ESF_Li3EEESt4lessISI_EjLb1EEEEELb0EEEbEC1ERKSQ_RKb @1418
    _ZNSt4pairIN5boost9intrusive13tree_iteratorINS1_11rbtree_implINS1_6setoptINS1_6detail16base_hook_traitsINS0_12interprocess6detail25intrusive_value_type_implINS5_12generic_hookINS1_17get_set_node_algoINS7_10offset_ptrIvEELb1EEENS1_11default_tagELNS1_14link_mode_typeE1ELi3EEEcEENS1_18rbtree_node_traitsISD_Lb1EEELSG_1ESF_Li3EEESt4lessISI_EjLb1EEEEELb0EEEbEC1Ev @1419
    _ZNSt4pairIN5boost9intrusive13tree_iteratorINS1_11rbtree_implINS1_6setoptINS1_6detail16base_hook_traitsINS0_12interprocess6detail25intrusive_value_type_implINS5_12generic_hookINS1_17get_set_node_algoINS7_10offset_ptrIvEELb1EEENS1_11default_tagELNS1_14link_mode_typeE1ELi3EEEcEENS1_18rbtree_node_traitsISD_Lb1EEELSG_1ESF_Li3EEESt4lessISI_EjLb1EEEEELb0EEEbEaSERKSR_ @1420
    _ZNSt4pairIN5boost9intrusive13tree_iteratorINS1_11rbtree_implINS1_6setoptINS1_6detail16base_hook_traitsINS0_22interprocess_container17containers_detail11rbtree_nodeIS_IKi16ShPendingCommandENS0_12interprocess10offset_ptrIvEEEENS1_18rbtree_node_traitsISF_Lb1EEELNS1_14link_mode_typeE0ENS1_11default_tagELi3EEENS8_12node_compareINS8_18value_compare_implIiSC_St4lessIiENS8_9select1stISC_EEEESG_EEjLb1EEEEELb0EEEbEC1ERKSW_RKb @1421
    _ZNSt4pairIP6PP_PosjEC1ERKS1_RKj @1422
    _ZNSt4pairIPN5boost12interprocess18interprocess_mutexEjEC1ERKS3_RKj @1423
    _ZNSt4pairIPN5boost22interprocess_container3mapIi16ShPendingCommandSt4lessIiENS0_12interprocess9allocatorIS_IKiS3_ENS6_15segment_managerIcNS6_15rbtree_best_fitINS6_12mutex_familyENS6_10offset_ptrIvEELj0EEENS6_10iset_indexEEEEEEEjEC1ERKSK_RKj @1424
    _ZNSt4pairIPN5boost22interprocess_container3mapIi6ShUnitSt4lessIiENS0_12interprocess9allocatorIS_IKiS3_ENS6_15segment_managerIcNS6_15rbtree_best_fitINS6_12mutex_familyENS6_10offset_ptrIvEELj0EEENS6_10iset_indexEEEEEEEjEC1ERKSK_RKj @1425
    _ZNSt4pairIPN5boost22interprocess_container6vectorI6PP_PosNS0_12interprocess9allocatorIS3_NS4_15segment_managerIcNS4_15rbtree_best_fitINS4_12mutex_familyENS4_10offset_ptrIvEELj0EEENS4_10iset_indexEEEEEEEjEC1ERKSG_RKj @1426
    _ZNSt4pairIPN5boost22interprocess_container6vectorI9ShCommandNS0_12interprocess9allocatorIS3_NS4_15segment_managerIcNS4_15rbtree_best_fitINS4_12mutex_familyENS4_10offset_ptrIvEELj0EEENS4_10iset_indexEEEEEEEjEC1ERKSG_RKj @1427
    _ZNSt4pairIPN5boost22interprocess_container6vectorIfNS0_12interprocess9allocatorIfNS3_15segment_managerIcNS3_15rbtree_best_fitINS3_12mutex_familyENS3_10offset_ptrIvEELj0EEENS3_10iset_indexEEEEEEEjEC1ERKSF_RKj @1428
    _ZNSt4pairIPN5boost22interprocess_container6vectorIiNS0_12interprocess9allocatorIiNS3_15segment_managerIcNS3_15rbtree_best_fitINS3_12mutex_familyENS3_10offset_ptrIvEELj0EEENS3_10iset_indexEEEEEEEjEC1ERKSF_RKj @1429
    _ZNSt4pairIPbjEC1ERKS0_RKj @1430
    _ZNSt4pairIPfbEC1ERKS0_RKb @1431
    _ZNSt4pairIPvbEC1ERKS0_RKb @1432
    _ZNSt4pairIPvbEC1Ev @1433
    _ZNSt6locale2idC1Ev @1434
    _ZNSt6vectorIfSaIfEE18_M_fill_initializeEjRKf @1435
    _ZNSt6vectorIfSaIfEE22_M_initialize_dispatchIiEEvT_S3_St11__true_type @1436
    _ZNSt6vectorIfSaIfEEC1EjRKfRKS0_ @1437
    _ZNSt6vectorIfSaIfEEC1Ev @1438
    _ZNSt6vectorIfSaIfEEC1IiEET_S3_RKS0_ @1439
    _ZNSt6vectorIfSaIfEED1Ev @1440
    _ZNSt6vectorIfSaIfEEixEj @1441
    _ZNSt8iteratorISt18input_iterator_tagciPcRcEC2Ev @1442
    _ZNSt8iteratorISt26bidirectional_iterator_tagKN5boost12interprocess15rbtree_best_fitINS2_12mutex_familyENS2_10offset_ptrIvEELj0EE10block_ctrlEiPS9_RS9_EC2Ev @1443
    _ZNSt8iteratorISt26bidirectional_iterator_tagKN5boost12interprocess6detail25intrusive_value_type_implINS1_9intrusive6detail12generic_hookINS5_17get_set_node_algoINS2_10offset_ptrIvEELb1EEENS5_11default_tagELNS5_14link_mode_typeE1ELi3EEEcEEiPSG_RSG_EC2Ev @1444
    _ZNSt8iteratorISt26bidirectional_iterator_tagKN5boost22interprocess_container17containers_detail11rbtree_nodeISt4pairIKi16ShPendingCommandENS1_12interprocess10offset_ptrIvEEEEiPSD_RSD_EC2Ev @1445
    _ZNSt8iteratorISt26bidirectional_iterator_tagN5boost12interprocess15rbtree_best_fitINS2_12mutex_familyENS2_10offset_ptrIvEELj0EE10block_ctrlEiPS8_RS8_EC2Ev @1446
    _ZNSt8iteratorISt26bidirectional_iterator_tagN5boost12interprocess6detail25intrusive_value_type_implINS1_9intrusive6detail12generic_hookINS5_17get_set_node_algoINS2_10offset_ptrIvEELb1EEENS5_11default_tagELNS5_14link_mode_typeE1ELi3EEEcEEiPSF_RSF_EC2Ev @1447
    _ZNSt8iteratorISt26bidirectional_iterator_tagN5boost22interprocess_container17containers_detail11rbtree_nodeISt4pairIKi16ShPendingCommandENS1_12interprocess10offset_ptrIvEEEEiPSC_RSC_EC2Ev @1448
    _ZNSt8iteratorISt26bidirectional_iterator_tagN5boost22interprocess_container17containers_detail11rbtree_nodeISt4pairIKi6ShUnitENS1_12interprocess10offset_ptrIvEEEEiPSC_RSC_EC2Ev @1449
    _ZNSt8iteratorISt26bidirectional_iterator_tagSt4pairIKi16ShPendingCommandEiN5boost12interprocess10offset_ptrIKS4_EERS8_EC2Ev @1450
    _ZNSt8iteratorISt26bidirectional_iterator_tagSt4pairIKi6ShUnitEiN5boost12interprocess10offset_ptrIKS4_EERS8_EC2Ev @1451
    _ZNSt9exceptionC2ERKS_ @1452
    _ZNSt9exceptionC2Ev @1453
    _ZSt10__distanceIN9__gnu_cxx17__normal_iteratorIPKfSt6vectorIfSaIfEEEEENSt15iterator_traitsIT_E15difference_typeES9_S9_St26random_access_iterator_tag @1454
    _ZSt10__fill_n_aIPfjfEN9__gnu_cxx11__enable_ifIXsrSt11__is_scalarIT1_E7__valueET_E6__typeES6_T0_RKS4_ @1455
    _ZSt13__copy_move_aILb0EPKfPfET1_T0_S4_S3_ @1456
    _ZSt14__copy_move_a2ILb0EN9__gnu_cxx17__normal_iteratorIPKfSt6vectorIfSaIfEEEEPfET1_T0_SA_S9_ @1457
    _ZSt18uninitialized_copyIN9__gnu_cxx17__normal_iteratorIPKfSt6vectorIfSaIfEEEEPfET0_T_SA_S9_ @1458
    _ZSt19__iterator_categoryIN9__gnu_cxx17__normal_iteratorIPKfSt6vectorIfSaIfEEEEENSt15iterator_traitsIT_E17iterator_categoryERKS9_ @1459
    _ZSt20uninitialized_fill_nIPfjfEvT_T0_RKT1_ @1460
    _ZSt24__uninitialized_fill_n_aIPfjffEvT_T0_RKT1_RSaIT2_E @1461
    _ZSt4copyIN9__gnu_cxx17__normal_iteratorIPKfSt6vectorIfSaIfEEEEPfET0_T_SA_S9_ @1462
    _ZSt4swapIN5boost12interprocess6detail27basic_multiallocation_slistINS1_10offset_ptrIvEEE8iteratorEEvRT_S9_ @1463
    _ZSt4swapIN5boost12interprocess6mode_tEEvRT_S4_ @1464
    _ZSt4swapIPvEvRT_S2_ @1465
    _ZSt4swapIjEvRT_S1_ @1466
    _ZSt4swapIxEvRT_S1_ @1467
    _ZSt6fill_nIPfjfET_S1_T0_RKT1_ @1468
    _ZSt7advanceIN9__gnu_cxx17__normal_iteratorIPKfSt6vectorIfSaIfEEEEjEvRT_T0_ @1469
    _ZSt8_DestroyIPfEvT_S1_ @1470
    _ZSt8_DestroyIPffEvT_S1_RSaIT0_E @1471
    _ZSt8distanceIN9__gnu_cxx17__normal_iteratorIPKfSt6vectorIfSaIfEEEEENSt15iterator_traitsIT_E15difference_typeES9_S9_ @1472
    _ZSt9__advanceIN9__gnu_cxx17__normal_iteratorIPKfSt6vectorIfSaIfEEEEiEvRT_T0_St26random_access_iterator_tag @1473
    _ZStplIcSt11char_traitsIcESaIcEESbIT_T0_T1_ERKS6_PKS3_ @1474
    _ZTI6PP_Pos @1475 DATA
    _ZTIN5boost10lock_errorE @1476 DATA
    _ZTIN5boost12interprocess14lock_exceptionE @1477 DATA
    _ZTIN5boost12interprocess18interprocess_mutexE @1478 DATA
    _ZTIN5boost12interprocess22interprocess_exceptionE @1479 DATA
    _ZTIN5boost12interprocess6detail17placement_destroyI6PP_PosEE @1480 DATA
    _ZTIN5boost12interprocess6detail17placement_destroyINS0_18interprocess_mutexEEE @1481 DATA
    _ZTIN5boost12interprocess6detail17placement_destroyINS_22interprocess_container3mapIi16ShPendingCommandSt4lessIiENS0_9allocatorISt4pairIKiS5_ENS0_15segment_managerIcNS0_15rbtree_best_fitINS0_12mutex_familyENS0_10offset_ptrIvEELj0EEENS0_10iset_indexEEEEEEEEE @1482 DATA
    _ZTIN5boost12interprocess6detail17placement_destroyINS_22interprocess_container3mapIi6ShUnitSt4lessIiENS0_9allocatorISt4pairIKiS5_ENS0_15segment_managerIcNS0_15rbtree_best_fitINS0_12mutex_familyENS0_10offset_ptrIvEELj0EEENS0_10iset_indexEEEEEEEEE @1483 DATA
    _ZTIN5boost12interprocess6detail17placement_destroyINS_22interprocess_container6vectorI6PP_PosNS0_9allocatorIS5_NS0_15segment_managerIcNS0_15rbtree_best_fitINS0_12mutex_familyENS0_10offset_ptrIvEELj0EEENS0_10iset_indexEEEEEEEEE @1484 DATA
    _ZTIN5boost12interprocess6detail17placement_destroyINS_22interprocess_container6vectorI9ShCommandNS0_9allocatorIS5_NS0_15segment_managerIcNS0_15rbtree_best_fitINS0_12mutex_familyENS0_10offset_ptrIvEELj0EEENS0_10iset_indexEEEEEEEEE @1485 DATA
    _ZTIN5boost12interprocess6detail17placement_destroyINS_22interprocess_container6vectorIfNS0_9allocatorIfNS0_15segment_managerIcNS0_15rbtree_best_fitINS0_12mutex_familyENS0_10offset_ptrIvEELj0EEENS0_10iset_indexEEEEEEEEE @1486 DATA
    _ZTIN5boost12interprocess6detail17placement_destroyINS_22interprocess_container6vectorIiNS0_9allocatorIiNS0_15segment_managerIcNS0_15rbtree_best_fitINS0_12mutex_familyENS0_10offset_ptrIvEELj0EEENS0_10iset_indexEEEEEEEEE @1487 DATA
    _ZTIN5boost12interprocess6detail17placement_destroyIbEE @1488 DATA
    _ZTIN5boost12interprocess6detail18in_place_interfaceE @1489 DATA
    _ZTIN5boost12interprocess6detail8Ctor3ArgINS_22interprocess_container6vectorIfNS0_9allocatorIfNS0_15segment_managerIcNS0_15rbtree_best_fitINS0_12mutex_familyENS0_10offset_ptrIvEELj0EEENS0_10iset_indexEEEEEEELb0EN9__gnu_cxx17__normal_iteratorIPKfSt6vectorIfSaIfEEEESN_SE_EE @1490 DATA
    _ZTIN5boost12interprocess9bad_allocE @1491 DATA
    _ZTIN5boost16exception_detail10clone_baseE @1492 DATA
    _ZTIN5boost16exception_detail10clone_implINS0_19error_info_injectorINS_9gregorian16bad_day_of_monthEEEEE @1493 DATA
    _ZTIN5boost16exception_detail10clone_implINS0_19error_info_injectorINS_9gregorian8bad_yearEEEEE @1494 DATA
    _ZTIN5boost16exception_detail10clone_implINS0_19error_info_injectorINS_9gregorian9bad_monthEEEEE @1495 DATA
    _ZTIN5boost16exception_detail10clone_implINS0_19error_info_injectorISt13runtime_errorEEEE @1496 DATA
    _ZTIN5boost16exception_detail19error_info_injectorINS_9gregorian16bad_day_of_monthEEE @1497 DATA
    _ZTIN5boost16exception_detail19error_info_injectorINS_9gregorian8bad_yearEEE @1498 DATA
    _ZTIN5boost16exception_detail19error_info_injectorINS_9gregorian9bad_monthEEE @1499 DATA
    _ZTIN5boost16exception_detail19error_info_injectorISt13runtime_errorEE @1500 DATA
    _ZTIN5boost16thread_exceptionE @1501 DATA
    _ZTIN5boost18thread_interruptedE @1502 DATA
    _ZTIN5boost21thread_resource_errorE @1503 DATA
    _ZTIN5boost22interprocess_container17containers_detail19vector_alloc_holderINS_12interprocess9allocatorI6PP_PosNS3_15segment_managerIcNS3_15rbtree_best_fitINS3_12mutex_familyENS3_10offset_ptrIvEELj0EEENS3_10iset_indexEEEEEEE @1504 DATA
    _ZTIN5boost22interprocess_container17containers_detail19vector_alloc_holderINS_12interprocess9allocatorI9ShCommandNS3_15segment_managerIcNS3_15rbtree_best_fitINS3_12mutex_familyENS3_10offset_ptrIvEELj0EEENS3_10iset_indexEEEEEEE @1505 DATA
    _ZTIN5boost22interprocess_container17containers_detail19vector_alloc_holderINS_12interprocess9allocatorIfNS3_15segment_managerIcNS3_15rbtree_best_fitINS3_12mutex_familyENS3_10offset_ptrIvEELj0EEENS3_10iset_indexEEEEEEE @1506 DATA
    _ZTIN5boost22interprocess_container17containers_detail19vector_alloc_holderINS_12interprocess9allocatorIiNS3_15segment_managerIcNS3_15rbtree_best_fitINS3_12mutex_familyENS3_10offset_ptrIvEELj0EEENS3_10iset_indexEEEEEEE @1507 DATA
    _ZTIN5boost22interprocess_container3mapIi16ShPendingCommandSt4lessIiENS_12interprocess9allocatorISt4pairIKiS2_ENS5_15segment_managerIcNS5_15rbtree_best_fitINS5_12mutex_familyENS5_10offset_ptrIvEELj0EEENS5_10iset_indexEEEEEEE @1508 DATA
    _ZTIN5boost22interprocess_container3mapIi6ShUnitSt4lessIiENS_12interprocess9allocatorISt4pairIKiS2_ENS5_15segment_managerIcNS5_15rbtree_best_fitINS5_12mutex_familyENS5_10offset_ptrIvEELj0EEENS5_10iset_indexEEEEEEE @1509 DATA
    _ZTIN5boost22interprocess_container6vectorI6PP_PosNS_12interprocess9allocatorIS2_NS3_15segment_managerIcNS3_15rbtree_best_fitINS3_12mutex_familyENS3_10offset_ptrIvEELj0EEENS3_10iset_indexEEEEEEE @1510 DATA
    _ZTIN5boost22interprocess_container6vectorI9ShCommandNS_12interprocess9allocatorIS2_NS3_15segment_managerIcNS3_15rbtree_best_fitINS3_12mutex_familyENS3_10offset_ptrIvEELj0EEENS3_10iset_indexEEEEEEE @1511 DATA
    _ZTIN5boost22interprocess_container6vectorIfNS_12interprocess9allocatorIfNS2_15segment_managerIcNS2_15rbtree_best_fitINS2_12mutex_familyENS2_10offset_ptrIvEELj0EEENS2_10iset_indexEEEEEEE @1512 DATA
    _ZTIN5boost22interprocess_container6vectorIiNS_12interprocess9allocatorIiNS2_15segment_managerIcNS2_15rbtree_best_fitINS2_12mutex_familyENS2_10offset_ptrIvEELj0EEENS2_10iset_indexEEEEEEE @1513 DATA
    _ZTIN5boost23invalid_thread_argumentE @1514 DATA
    _ZTIN5boost23thread_permission_errorE @1515 DATA
    _ZTIN5boost25unsupported_thread_optionE @1516 DATA
    _ZTIN5boost6detail16thread_data_baseE @1517 DATA
    _ZTIN5boost9exceptionE @1518 DATA
    _ZTIN5boost9gregorian16bad_day_of_monthE @1519 DATA
    _ZTIN5boost9gregorian8bad_yearE @1520 DATA
    _ZTIN5boost9gregorian9bad_monthE @1521 DATA
    _ZTISt11logic_error @1522 DATA
    _ZTISt12out_of_range @1523 DATA
    _ZTISt13runtime_error @1524 DATA
    _ZTISt9bad_alloc @1525 DATA
    _ZTISt9exception @1526 DATA
    _ZTS6PP_Pos @1527 DATA
    _ZTSN5boost10lock_errorE @1528 DATA
    _ZTSN5boost12interprocess14lock_exceptionE @1529 DATA
    _ZTSN5boost12interprocess18interprocess_mutexE @1530 DATA
    _ZTSN5boost12interprocess22interprocess_exceptionE @1531 DATA
    _ZTSN5boost12interprocess6detail17placement_destroyI6PP_PosEE @1532 DATA
    _ZTSN5boost12interprocess6detail17placement_destroyINS0_18interprocess_mutexEEE @1533 DATA
    _ZTSN5boost12interprocess6detail17placement_destroyINS_22interprocess_container3mapIi16ShPendingCommandSt4lessIiENS0_9allocatorISt4pairIKiS5_ENS0_15segment_managerIcNS0_15rbtree_best_fitINS0_12mutex_familyENS0_10offset_ptrIvEELj0EEENS0_10iset_indexEEEEEEEEE @1534 DATA
    _ZTSN5boost12interprocess6detail17placement_destroyINS_22interprocess_container3mapIi6ShUnitSt4lessIiENS0_9allocatorISt4pairIKiS5_ENS0_15segment_managerIcNS0_15rbtree_best_fitINS0_12mutex_familyENS0_10offset_ptrIvEELj0EEENS0_10iset_indexEEEEEEEEE @1535 DATA
    _ZTSN5boost12interprocess6detail17placement_destroyINS_22interprocess_container6vectorI6PP_PosNS0_9allocatorIS5_NS0_15segment_managerIcNS0_15rbtree_best_fitINS0_12mutex_familyENS0_10offset_ptrIvEELj0EEENS0_10iset_indexEEEEEEEEE @1536 DATA
    _ZTSN5boost12interprocess6detail17placement_destroyINS_22interprocess_container6vectorI9ShCommandNS0_9allocatorIS5_NS0_15segment_managerIcNS0_15rbtree_best_fitINS0_12mutex_familyENS0_10offset_ptrIvEELj0EEENS0_10iset_indexEEEEEEEEE @1537 DATA
    _ZTSN5boost12interprocess6detail17placement_destroyINS_22interprocess_container6vectorIfNS0_9allocatorIfNS0_15segment_managerIcNS0_15rbtree_best_fitINS0_12mutex_familyENS0_10offset_ptrIvEELj0EEENS0_10iset_indexEEEEEEEEE @1538 DATA
    _ZTSN5boost12interprocess6detail17placement_destroyINS_22interprocess_container6vectorIiNS0_9allocatorIiNS0_15segment_managerIcNS0_15rbtree_best_fitINS0_12mutex_familyENS0_10offset_ptrIvEELj0EEENS0_10iset_indexEEEEEEEEE @1539 DATA
    _ZTSN5boost12interprocess6detail17placement_destroyIbEE @1540 DATA
    _ZTSN5boost12interprocess6detail18in_place_interfaceE @1541 DATA
    _ZTSN5boost12interprocess6detail8Ctor3ArgINS_22interprocess_container6vectorIfNS0_9allocatorIfNS0_15segment_managerIcNS0_15rbtree_best_fitINS0_12mutex_familyENS0_10offset_ptrIvEELj0EEENS0_10iset_indexEEEEEEELb0EN9__gnu_cxx17__normal_iteratorIPKfSt6vectorIfSaIfEEEESN_SE_EE @1542 DATA
    _ZTSN5boost12interprocess9bad_allocE @1543 DATA
    _ZTSN5boost16exception_detail10clone_baseE @1544 DATA
    _ZTSN5boost16exception_detail10clone_implINS0_19error_info_injectorINS_9gregorian16bad_day_of_monthEEEEE @1545 DATA
    _ZTSN5boost16exception_detail10clone_implINS0_19error_info_injectorINS_9gregorian8bad_yearEEEEE @1546 DATA
    _ZTSN5boost16exception_detail10clone_implINS0_19error_info_injectorINS_9gregorian9bad_monthEEEEE @1547 DATA
    _ZTSN5boost16exception_detail10clone_implINS0_19error_info_injectorISt13runtime_errorEEEE @1548 DATA
    _ZTSN5boost16exception_detail19error_info_injectorINS_9gregorian16bad_day_of_monthEEE @1549 DATA
    _ZTSN5boost16exception_detail19error_info_injectorINS_9gregorian8bad_yearEEE @1550 DATA
    _ZTSN5boost16exception_detail19error_info_injectorINS_9gregorian9bad_monthEEE @1551 DATA
    _ZTSN5boost16exception_detail19error_info_injectorISt13runtime_errorEE @1552 DATA
    _ZTSN5boost16thread_exceptionE @1553 DATA
    _ZTSN5boost18thread_interruptedE @1554 DATA
    _ZTSN5boost21thread_resource_errorE @1555 DATA
    _ZTSN5boost22interprocess_container17containers_detail19vector_alloc_holderINS_12interprocess9allocatorI6PP_PosNS3_15segment_managerIcNS3_15rbtree_best_fitINS3_12mutex_familyENS3_10offset_ptrIvEELj0EEENS3_10iset_indexEEEEEEE @1556 DATA
    _ZTSN5boost22interprocess_container17containers_detail19vector_alloc_holderINS_12interprocess9allocatorI9ShCommandNS3_15segment_managerIcNS3_15rbtree_best_fitINS3_12mutex_familyENS3_10offset_ptrIvEELj0EEENS3_10iset_indexEEEEEEE @1557 DATA
    _ZTSN5boost22interprocess_container17containers_detail19vector_alloc_holderINS_12interprocess9allocatorIfNS3_15segment_managerIcNS3_15rbtree_best_fitINS3_12mutex_familyENS3_10offset_ptrIvEELj0EEENS3_10iset_indexEEEEEEE @1558 DATA
    _ZTSN5boost22interprocess_container17containers_detail19vector_alloc_holderINS_12interprocess9allocatorIiNS3_15segment_managerIcNS3_15rbtree_best_fitINS3_12mutex_familyENS3_10offset_ptrIvEELj0EEENS3_10iset_indexEEEEEEE @1559 DATA
    _ZTSN5boost22interprocess_container3mapIi16ShPendingCommandSt4lessIiENS_12interprocess9allocatorISt4pairIKiS2_ENS5_15segment_managerIcNS5_15rbtree_best_fitINS5_12mutex_familyENS5_10offset_ptrIvEELj0EEENS5_10iset_indexEEEEEEE @1560 DATA
    _ZTSN5boost22interprocess_container3mapIi6ShUnitSt4lessIiENS_12interprocess9allocatorISt4pairIKiS2_ENS5_15segment_managerIcNS5_15rbtree_best_fitINS5_12mutex_familyENS5_10offset_ptrIvEELj0EEENS5_10iset_indexEEEEEEE @1561 DATA
    _ZTSN5boost22interprocess_container6vectorI6PP_PosNS_12interprocess9allocatorIS2_NS3_15segment_managerIcNS3_15rbtree_best_fitINS3_12mutex_familyENS3_10offset_ptrIvEELj0EEENS3_10iset_indexEEEEEEE @1562 DATA
    _ZTSN5boost22interprocess_container6vectorI9ShCommandNS_12interprocess9allocatorIS2_NS3_15segment_managerIcNS3_15rbtree_best_fitINS3_12mutex_familyENS3_10offset_ptrIvEELj0EEENS3_10iset_indexEEEEEEE @1563 DATA
    _ZTSN5boost22interprocess_container6vectorIfNS_12interprocess9allocatorIfNS2_15segment_managerIcNS2_15rbtree_best_fitINS2_12mutex_familyENS2_10offset_ptrIvEELj0EEENS2_10iset_indexEEEEEEE @1564 DATA
    _ZTSN5boost22interprocess_container6vectorIiNS_12interprocess9allocatorIiNS2_15segment_managerIcNS2_15rbtree_best_fitINS2_12mutex_familyENS2_10offset_ptrIvEELj0EEENS2_10iset_indexEEEEEEE @1565 DATA
    _ZTSN5boost23invalid_thread_argumentE @1566 DATA
    _ZTSN5boost23thread_permission_errorE @1567 DATA
    _ZTSN5boost25unsupported_thread_optionE @1568 DATA
    _ZTSN5boost6detail16thread_data_baseE @1569 DATA
    _ZTSN5boost9exceptionE @1570 DATA
    _ZTSN5boost9gregorian16bad_day_of_monthE @1571 DATA
    _ZTSN5boost9gregorian8bad_yearE @1572 DATA
    _ZTSN5boost9gregorian9bad_monthE @1573 DATA
    _ZTSSt11logic_error @1574 DATA
    _ZTSSt12out_of_range @1575 DATA
    _ZTSSt13runtime_error @1576 DATA
    _ZTSSt9bad_alloc @1577 DATA
    _ZTSSt9exception @1578 DATA
    _ZTVN5boost10lock_errorE @1579 DATA
    _ZTVN5boost12interprocess14lock_exceptionE @1580 DATA
    _ZTVN5boost12interprocess22interprocess_exceptionE @1581 DATA
    _ZTVN5boost12interprocess6detail17placement_destroyI6PP_PosEE @1582 DATA
    _ZTVN5boost12interprocess6detail17placement_destroyINS0_18interprocess_mutexEEE @1583 DATA
    _ZTVN5boost12interprocess6detail17placement_destroyINS_22interprocess_container3mapIi16ShPendingCommandSt4lessIiENS0_9allocatorISt4pairIKiS5_ENS0_15segment_managerIcNS0_15rbtree_best_fitINS0_12mutex_familyENS0_10offset_ptrIvEELj0EEENS0_10iset_indexEEEEEEEEE @1584 DATA
    _ZTVN5boost12interprocess6detail17placement_destroyINS_22interprocess_container3mapIi6ShUnitSt4lessIiENS0_9allocatorISt4pairIKiS5_ENS0_15segment_managerIcNS0_15rbtree_best_fitINS0_12mutex_familyENS0_10offset_ptrIvEELj0EEENS0_10iset_indexEEEEEEEEE @1585 DATA
    _ZTVN5boost12interprocess6detail17placement_destroyINS_22interprocess_container6vectorI6PP_PosNS0_9allocatorIS5_NS0_15segment_managerIcNS0_15rbtree_best_fitINS0_12mutex_familyENS0_10offset_ptrIvEELj0EEENS0_10iset_indexEEEEEEEEE @1586 DATA
    _ZTVN5boost12interprocess6detail17placement_destroyINS_22interprocess_container6vectorI9ShCommandNS0_9allocatorIS5_NS0_15segment_managerIcNS0_15rbtree_best_fitINS0_12mutex_familyENS0_10offset_ptrIvEELj0EEENS0_10iset_indexEEEEEEEEE @1587 DATA
    _ZTVN5boost12interprocess6detail17placement_destroyINS_22interprocess_container6vectorIfNS0_9allocatorIfNS0_15segment_managerIcNS0_15rbtree_best_fitINS0_12mutex_familyENS0_10offset_ptrIvEELj0EEENS0_10iset_indexEEEEEEEEE @1588 DATA
    _ZTVN5boost12interprocess6detail17placement_destroyINS_22interprocess_container6vectorIiNS0_9allocatorIiNS0_15segment_managerIcNS0_15rbtree_best_fitINS0_12mutex_familyENS0_10offset_ptrIvEELj0EEENS0_10iset_indexEEEEEEEEE @1589 DATA
    _ZTVN5boost12interprocess6detail17placement_destroyIbEE @1590 DATA
    _ZTVN5boost12interprocess6detail18in_place_interfaceE @1591 DATA
    _ZTVN5boost12interprocess6detail8Ctor3ArgINS_22interprocess_container6vectorIfNS0_9allocatorIfNS0_15segment_managerIcNS0_15rbtree_best_fitINS0_12mutex_familyENS0_10offset_ptrIvEELj0EEENS0_10iset_indexEEEEEEELb0EN9__gnu_cxx17__normal_iteratorIPKfSt6vectorIfSaIfEEEESN_SE_EE @1592 DATA
    _ZTVN5boost12interprocess9bad_allocE @1593 DATA
    _ZTVN5boost16exception_detail10clone_baseE @1594 DATA
    _ZTVN5boost16exception_detail10clone_implINS0_19error_info_injectorINS_9gregorian16bad_day_of_monthEEEEE @1595 DATA
    _ZTVN5boost16exception_detail10clone_implINS0_19error_info_injectorINS_9gregorian8bad_yearEEEEE @1596 DATA
    _ZTVN5boost16exception_detail10clone_implINS0_19error_info_injectorINS_9gregorian9bad_monthEEEEE @1597 DATA
    _ZTVN5boost16exception_detail10clone_implINS0_19error_info_injectorISt13runtime_errorEEEE @1598 DATA
    _ZTVN5boost16exception_detail19error_info_injectorINS_9gregorian16bad_day_of_monthEEE @1599 DATA
    _ZTVN5boost16exception_detail19error_info_injectorINS_9gregorian8bad_yearEEE @1600 DATA
    _ZTVN5boost16exception_detail19error_info_injectorINS_9gregorian9bad_monthEEE @1601 DATA
    _ZTVN5boost16exception_detail19error_info_injectorISt13runtime_errorEE @1602 DATA
    _ZTVN5boost16thread_exceptionE @1603 DATA
    _ZTVN5boost21thread_resource_errorE @1604 DATA
    _ZTVN5boost23invalid_thread_argumentE @1605 DATA
    _ZTVN5boost23thread_permission_errorE @1606 DATA
    _ZTVN5boost25unsupported_thread_optionE @1607 DATA
    _ZTVN5boost6detail16thread_data_baseE @1608 DATA
    _ZTVN5boost9exceptionE @1609 DATA
    _ZTVN5boost9gregorian16bad_day_of_monthE @1610 DATA
    _ZTVN5boost9gregorian8bad_yearE @1611 DATA
    _ZTVN5boost9gregorian9bad_monthE @1612 DATA
    _ZTVSt12out_of_range @1613 DATA
    _ZThn28_N5boost16exception_detail10clone_implINS0_19error_info_injectorINS_9gregorian16bad_day_of_monthEEEED0Ev @1614
    _ZThn28_N5boost16exception_detail10clone_implINS0_19error_info_injectorINS_9gregorian16bad_day_of_monthEEEED1Ev @1615
    _ZThn28_N5boost16exception_detail10clone_implINS0_19error_info_injectorINS_9gregorian8bad_yearEEEED0Ev @1616
    _ZThn28_N5boost16exception_detail10clone_implINS0_19error_info_injectorINS_9gregorian8bad_yearEEEED1Ev @1617
    _ZThn28_N5boost16exception_detail10clone_implINS0_19error_info_injectorINS_9gregorian9bad_monthEEEED0Ev @1618
    _ZThn28_N5boost16exception_detail10clone_implINS0_19error_info_injectorINS_9gregorian9bad_monthEEEED1Ev @1619
    _ZThn28_N5boost16exception_detail10clone_implINS0_19error_info_injectorISt13runtime_errorEEED0Ev @1620
    _ZThn28_N5boost16exception_detail10clone_implINS0_19error_info_injectorISt13runtime_errorEEED1Ev @1621
    _ZThn28_NK5boost16exception_detail10clone_implINS0_19error_info_injectorINS_9gregorian16bad_day_of_monthEEEE5cloneEv @1622
    _ZThn28_NK5boost16exception_detail10clone_implINS0_19error_info_injectorINS_9gregorian16bad_day_of_monthEEEE7rethrowEv @1623
    _ZThn28_NK5boost16exception_detail10clone_implINS0_19error_info_injectorINS_9gregorian8bad_yearEEEE5cloneEv @1624
    _ZThn28_NK5boost16exception_detail10clone_implINS0_19error_info_injectorINS_9gregorian8bad_yearEEEE7rethrowEv @1625
    _ZThn28_NK5boost16exception_detail10clone_implINS0_19error_info_injectorINS_9gregorian9bad_monthEEEE5cloneEv @1626
    _ZThn28_NK5boost16exception_detail10clone_implINS0_19error_info_injectorINS_9gregorian9bad_monthEEEE7rethrowEv @1627
    _ZThn28_NK5boost16exception_detail10clone_implINS0_19error_info_injectorISt13runtime_errorEEE5cloneEv @1628
    _ZThn28_NK5boost16exception_detail10clone_implINS0_19error_info_injectorISt13runtime_errorEEE7rethrowEv @1629
    _ZThn8_N5boost16exception_detail10clone_implINS0_19error_info_injectorINS_9gregorian16bad_day_of_monthEEEED0Ev @1630
    _ZThn8_N5boost16exception_detail10clone_implINS0_19error_info_injectorINS_9gregorian16bad_day_of_monthEEEED1Ev @1631
    _ZThn8_N5boost16exception_detail10clone_implINS0_19error_info_injectorINS_9gregorian8bad_yearEEEED0Ev @1632
    _ZThn8_N5boost16exception_detail10clone_implINS0_19error_info_injectorINS_9gregorian8bad_yearEEEED1Ev @1633
    _ZThn8_N5boost16exception_detail10clone_implINS0_19error_info_injectorINS_9gregorian9bad_monthEEEED0Ev @1634
    _ZThn8_N5boost16exception_detail10clone_implINS0_19error_info_injectorINS_9gregorian9bad_monthEEEED1Ev @1635
    _ZThn8_N5boost16exception_detail10clone_implINS0_19error_info_injectorISt13runtime_errorEEED0Ev @1636
    _ZThn8_N5boost16exception_detail10clone_implINS0_19error_info_injectorISt13runtime_errorEEED1Ev @1637
    _ZThn8_N5boost16exception_detail19error_info_injectorINS_9gregorian16bad_day_of_monthEED0Ev @1638
    _ZThn8_N5boost16exception_detail19error_info_injectorINS_9gregorian16bad_day_of_monthEED1Ev @1639
    _ZThn8_N5boost16exception_detail19error_info_injectorINS_9gregorian8bad_yearEED0Ev @1640
    _ZThn8_N5boost16exception_detail19error_info_injectorINS_9gregorian8bad_yearEED1Ev @1641
    _ZThn8_N5boost16exception_detail19error_info_injectorINS_9gregorian9bad_monthEED0Ev @1642
    _ZThn8_N5boost16exception_detail19error_info_injectorINS_9gregorian9bad_monthEED1Ev @1643
    _ZThn8_N5boost16exception_detail19error_info_injectorISt13runtime_errorED0Ev @1644
    _ZThn8_N5boost16exception_detail19error_info_injectorISt13runtime_errorED1Ev @1645
    _ZZN5boost12interprocess6detail27managed_open_or_create_implINS0_20shared_memory_objectELb1EE18write_whole_deviceILb1EEEvRS3_jNS1_5bool_ILb1EEEE4data @1646 DATA
    _ZZN5boost6detail17create_once_mutexEPvE16fixed_mutex_name @1647 DATA
    _ZdlPvS_ @1648
    _ZnwjPv @1649
    __crt_xl_end__ @1650 DATA
    __crt_xl_start__ @1651 DATA
    __crt_xl_tls_callback__ @1652 DATA
    __tls_end__ @1653 DATA
    __tls_index__ @1654 DATA
    __tls_start__ @1655 DATA
    _get_output_format @1656
    _tls_used @1657 DATA
    after_ctors @1658 DATA
    after_dtors @1659 DATA
    before_dtors @1660 DATA
    enterCriticalSection @1661
    exitCriticalSection @1662
    on_process_enter @1663
    on_process_exit @1664
    on_thread_enter @1665
    on_thread_exit @1666
    tss_cleanup_implemented @1667
